Certificate:
    Data:
        Version: 3 (0x2)
        Serial Number: 4 (0x4)
        Signature Algorithm: sha256WithRSAEncryption
        Issuer: O=Test Org, CN=Test Org Provisioning CA Root
        Validity
            Not Before: Jan  1 00:00:00 1970 GMT
            Not After : Dec 31 23:59:59 9999 GMT
        Subject: O=Test Org, CN=Test Org XKU timeStamping
        Subject Public Key Info:
            Public Key Algorithm: rsaEncryption
                RSA Public-Key: (2048 bit)
                Modulus:
                    00:c2:f0:98:97:91:71:27:39:ab:7a:7d:1b:99:06:
                    33:e4:4d:0a:fe:42:81:39:9d:da:40:b1:82:4d:8d:
                    53:3a:d7:81:ce:16:bb:18:7c:e9:2d:15:cd:71:76:
                    71:67:29:70:1f:3c:0c:62:c7:b8:3f:2c:66:e3:f0:
                    09:f8:34:e6:11:5f:30:fb:1e:9a:0c:7f:bc:ae:4a:
                    21:0c:38:bb:da:61:17:8e:b0:20:5f:34:a4:e4:27:
                    c9:89:45:3b:31:f8:fa:72:eb:de:46:8a:4e:e9:73:
                    a4:0f:fe:fe:69:53:56:87:7e:44:0b:46:40:7c:5d:
                    26:a4:28:69:bc:4d:59:e8:a1:4f:f1:d8:c6:ec:46:
                    22:4e:3f:dd:74:4a:22:43:dc:e2:69:07:a0:41:b6:
                    0a:e0:ec:09:06:34:98:99:23:17:27:07:ba:66:de:
                    43:43:e2:13:2d:33:27:bf:a0:e9:91:65:f5:16:dd:
                    3c:3e:79:a6:d3:47:54:7b:43:61:6c:e5:83:30:c2:
                    50:8f:78:50:c1:4c:7b:3e:0c:8f:f2:ad:c0:5a:47:
                    63:2a:84:05:b7:bd:1f:a1:b3:57:75:52:ad:59:44:
                    af:09:42:7b:15:37:41:25:9e:87:b6:14:91:b6:96:
                    5d:7e:67:c6:3e:40:b4:54:1b:cb:5a:94:8a:2e:77:
                    f8:37
                Exponent: 65537 (0x10001)
        X509v3 extensions:
            X509v3 Subject Key Identifier: 
                21:48:24:93:34:F6:BF:C1:0B:11:17:97:23:C2:8D:1D:F6:A9:AD:23
            X509v3 Authority Key Identifier: 
                keyid:20:02:A1:59:1C:07:94:4A:AA:25:27:C9:49:60:BB:14:0F:83:12:08
                DirName:/O=Test Org/CN=Test Org Provisioning CA Root
                serial:01

            X509v3 Basic Constraints: 
                CA:FALSE
            X509v3 Extended Key Usage: critical
                Time Stamping
    Signature Algorithm: sha256WithRSAEncryption
         cb:26:dd:ee:44:57:c2:1b:3c:fb:59:e2:26:63:4c:4a:26:a2:
         a5:98:e5:58:42:d7:b2:7a:b1:9e:ec:1a:23:42:91:08:38:cc:
         d9:2d:f4:13:8a:e2:32:69:07:7d:6a:82:d1:3c:02:49:85:8f:
         8a:e2:df:f8:4b:19:40:d8:df:f3:09:b2:8e:6f:f1:e1:a6:10:
         9d:d5:85:a6:55:f8:d4:05:a3:ed:de:38:6a:48:85:f8:a0:5d:
         76:0b:ba:4b:b8:3d:49:3d:bf:15:4a:e6:03:f2:02:53:b4:9c:
         72:64:83:e3:57:ed:d8:c1:de:ee:d4:49:b4:12:ec:04:c1:ef:
         0b:b0:2f:61:5b:95:b3:89:1d:bd:de:47:80:de:76:22:95:48:
         72:cc:95:17:95:60:75:4b:dd:65:fe:92:65:c1:a8:a4:47:87:
         97:3b:36:22:f0:92:74:93:29:74:f0:32:23:24:58:88:d3:0e:
         71:3d:59:60:15:d4:4b:fa:18:39:9e:bf:32:ec:0a:60:51:33:
         b3:fd:42:3f:f1:f6:91:0f:8b:e8:b6:48:72:7d:f2:0d:42:03:
         e2:52:c6:a4:d1:fe:72:5b:78:89:21:15:05:b4:ae:44:c0:d0:
         2c:2d:51:18:ec:8b:b1:fc:2f:df:4c:4a:cd:e0:99:2d:df:42:
         f3:00:ec:a4
-----BEGIN CERTIFICATE-----
MIIDmjCCAoKgAwIBAgIBBDANBgkqhkiG9w0BAQsFADA7MREwDwYDVQQKDAhUZXN0
IE9yZzEmMCQGA1UEAwwdVGVzdCBPcmcgUHJvdmlzaW9uaW5nIENBIFJvb3QwIBcN
NzAwMTAxMDAwMDAwWhgPOTk5OTEyMzEyMzU5NTlaMDcxETAPBgNVBAoMCFRlc3Qg
T3JnMSIwIAYDVQQDDBlUZXN0IE9yZyBYS1UgdGltZVN0YW1waW5nMIIBIjANBgkq
hkiG9w0BAQEFAAOCAQ8AMIIBCgKCAQEAwvCYl5FxJzmren0bmQYz5E0K/kKBOZ3a
QLGCTY1TOteBzha7GHzpLRXNcXZxZylwHzwMYse4Pyxm4/AJ+DTmEV8w+x6aDH+8
rkohDDi72mEXjrAgXzSk5CfJiUU7Mfj6cuveRopO6XOkD/7+aVNWh35EC0ZAfF0m
pChpvE1Z6KFP8djG7EYiTj/ddEoiQ9ziaQegQbYK4OwJBjSYmSMXJwe6Zt5DQ+IT
LTMnv6DpkWX1Ft08Pnmm00dUe0NhbOWDMMJQj3hQwUx7PgyP8q3AWkdjKoQFt70f
obNXdVKtWUSvCUJ7FTdBJZ6HthSRtpZdfmfGPkC0VBvLWpSKLnf4NwIDAQABo4Gq
MIGnMB0GA1UdDgQWBBQhSCSTNPa/wQsRF5cjwo0d9qmtIzBjBgNVHSMEXDBagBQg
AqFZHAeUSqolJ8lJYLsUD4MSCKE/pD0wOzERMA8GA1UECgwIVGVzdCBPcmcxJjAk
BgNVBAMMHVRlc3QgT3JnIFByb3Zpc2lvbmluZyBDQSBSb290ggEBMAkGA1UdEwQC
MAAwFgYDVR0lAQH/BAwwCgYIKwYBBQUHAwgwDQYJKoZIhvcNAQELBQADggEBAMsm
3e5EV8IbPPtZ4iZjTEomoqWY5VhC17J6sZ7sGiNCkQg4zNkt9BOK4jJpB31qgtE8
AkmFj4ri3/hLGUDY3/MJso5v8eGmEJ3VhaZV+NQFo+3eOGpIhfigXXYLuku4PUk9
vxVK5gPyAlO0nHJkg+NX7djB3u7USbQS7ATB7wuwL2FblbOJHb3eR4DediKVSHLM
lReVYHVL3WX+kmXBqKRHh5c7NiLwknSTKXTwMiMkWIjTDnE9WWAV1Ev6GDmevzLs
CmBRM7P9Qj/x9pEPi+i2SHJ98g1CA+JSxqTR/nJbeIkhFQW0rkTA0CwtURjsi7H8
L99MSs3gmS3fQvMA7KQ=
-----END CERTIFICATE-----
