Certificate:
    Data:
        Version: 3 (0x2)
        Serial Number: 1 (0x1)
    Signature Algorithm: sha256WithRSAEncryption
        Issuer: O=Test Org, CN=Test Org Provisioning CA Root
        Validity
            Not Before: Jan  1 00:00:00 1970 GMT
            Not After : Dec 31 23:59:59 9999 GMT
        Subject: O=Test Org, CN=Test Org Provisioning CA Root
        Subject Public Key Info:
            Public Key Algorithm: rsaEncryption
                Public-Key: (2048 bit)
                Modulus:
                    00:db:e6:0b:9b:bf:7b:cd:3a:b7:03:2e:fe:a8:45:
                    18:de:69:ee:af:fd:3c:23:5e:6a:f7:14:a6:08:97:
                    0a:62:45:72:4b:1d:0d:49:35:32:37:8a:81:92:90:
                    93:9e:28:1a:a2:2b:55:03:3a:0a:22:8d:b5:50:9a:
                    31:0c:59:88:92:05:ad:31:06:bf:7b:e0:11:81:25:
                    16:db:69:37:fa:fe:8b:e6:dd:4d:10:24:d3:61:b6:
                    3d:8f:1f:20:64:7d:35:3c:1f:24:fc:3b:71:0e:bf:
                    2d:09:ec:30:28:d6:e5:49:17:f9:68:9e:1d:09:04:
                    16:85:21:28:c0:c7:00:ef:f5:8f:26:2e:d0:f2:07:
                    df:ad:c6:9f:21:bb:b4:bc:e6:c2:93:b9:ea:82:61:
                    70:fb:49:d5:92:96:5f:a6:39:e0:a3:7c:15:c2:0e:
                    1e:bc:f7:c5:24:e7:20:a2:f2:84:38:63:90:f9:f2:
                    f0:03:f8:94:19:69:49:ac:36:b2:03:97:a6:ed:28:
                    bf:fd:80:0c:fa:90:b9:27:ce:f3:9f:8e:9b:99:f6:
                    18:80:df:77:bf:ec:3d:ec:6c:96:ca:54:9e:d5:52:
                    9a:b4:66:2a:6d:12:65:29:89:af:0b:76:49:3d:cf:
                    a3:7b:90:5c:f9:5e:8f:a2:86:a9:db:4a:eb:b4:48:
                    29:33
                Exponent: 65537 (0x10001)
        X509v3 extensions:
            X509v3 Subject Key Identifier: 
                20:02:A1:59:1C:07:94:4A:AA:25:27:C9:49:60:BB:14:0F:83:12:08
            X509v3 Authority Key Identifier: 
                keyid:20:02:A1:59:1C:07:94:4A:AA:25:27:C9:49:60:BB:14:0F:83:12:08
                DirName:/O=Test Org/CN=Test Org Provisioning CA Root
                serial:01

            X509v3 Basic Constraints: 
                CA:TRUE
    Signature Algorithm: sha256WithRSAEncryption
         3b:b3:4a:89:bb:3c:5f:ed:53:5d:16:a2:c9:ce:85:ba:a0:d1:
         e5:d1:0b:13:df:5b:0a:61:4a:59:ba:27:8b:45:34:1e:5f:6e:
         1f:13:88:d3:68:9a:22:42:81:d7:da:f5:da:35:ee:ec:1e:60:
         fd:f9:81:69:b2:4a:1b:64:57:e2:53:ea:bf:7a:51:f0:8f:f6:
         9f:0f:fd:1e:04:df:0b:0d:4e:03:d5:72:31:2f:fd:1a:e2:b5:
         1b:33:85:fa:07:57:9b:37:32:23:c8:b2:58:97:03:87:ff:76:
         49:9f:5b:9e:3c:57:f9:f8:3d:90:0f:92:bc:d2:e6:d0:37:54:
         c5:1c:7b:e1:48:79:29:78:2f:95:e3:88:95:02:33:96:7d:37:
         99:53:c3:51:0b:02:c4:35:bd:8e:f9:b3:d7:12:87:63:b7:38:
         76:21:81:28:bf:5e:67:18:d5:62:8d:b5:a5:59:79:df:db:f7:
         95:4e:43:29:c2:51:a4:02:c1:5a:21:ac:f4:7a:75:ba:ef:c7:
         18:26:e1:a2:dc:c3:e7:16:dc:94:e0:2c:53:a5:8d:75:44:67:
         59:1c:68:64:c8:f9:6b:ec:f8:5b:56:d2:75:2c:90:c3:84:68:
         b6:eb:7e:7a:9a:04:b8:cd:0b:f4:af:8f:5c:90:7f:d1:97:dc:
         13:9d:13:05
-----BEGIN CERTIFICATE-----
MIIDizCCAnOgAwIBAgIBATANBgkqhkiG9w0BAQsFADA7MREwDwYDVQQKDAhUZXN0
IE9yZzEmMCQGA1UEAwwdVGVzdCBPcmcgUHJvdmlzaW9uaW5nIENBIFJvb3QwIhgP
MTk3MDAxMDEwMDAwMDBaGA85OTk5MTIzMTIzNTk1OVowOzERMA8GA1UECgwIVGVz
dCBPcmcxJjAkBgNVBAMMHVRlc3QgT3JnIFByb3Zpc2lvbmluZyBDQSBSb290MIIB
IjANBgkqhkiG9w0BAQEFAAOCAQ8AMIIBCgKCAQEA2+YLm797zTq3Ay7+qEUY3mnu
r/08I15q9xSmCJcKYkVySx0NSTUyN4qBkpCTnigaoitVAzoKIo21UJoxDFmIkgWt
MQa/e+ARgSUW22k3+v6L5t1NECTTYbY9jx8gZH01PB8k/DtxDr8tCewwKNblSRf5
aJ4dCQQWhSEowMcA7/WPJi7Q8gffrcafIbu0vObCk7nqgmFw+0nVkpZfpjngo3wV
wg4evPfFJOcgovKEOGOQ+fLwA/iUGWlJrDayA5em7Si//YAM+pC5J87zn46bmfYY
gN93v+w97GyWylSe1VKatGYqbRJlKYmvC3ZJPc+je5Bc+V6Pooap20rrtEgpMwID
AQABo4GVMIGSMB0GA1UdDgQWBBQgAqFZHAeUSqolJ8lJYLsUD4MSCDBjBgNVHSME
XDBagBQgAqFZHAeUSqolJ8lJYLsUD4MSCKE/pD0wOzERMA8GA1UECgwIVGVzdCBP
cmcxJjAkBgNVBAMMHVRlc3QgT3JnIFByb3Zpc2lvbmluZyBDQSBSb290ggEBMAwG
A1UdEwQFMAMBAf8wDQYJKoZIhvcNAQELBQADggEBADuzSom7PF/tU10WosnOhbqg
0eXRCxPfWwphSlm6J4tFNB5fbh8TiNNomiJCgdfa9do17uweYP35gWmyShtkV+JT
6r96UfCP9p8P/R4E3wsNTgPVcjEv/RritRszhfoHV5s3MiPIsliXA4f/dkmfW548
V/n4PZAPkrzS5tA3VMUce+FIeSl4L5XjiJUCM5Z9N5lTw1ELAsQ1vY75s9cSh2O3
OHYhgSi/XmcY1WKNtaVZed/b95VOQynCUaQCwVohrPR6dbrvxxgm4aLcw+cW3JTg
LFOljXVEZ1kcaGTI+Wvs+FtW0nUskMOEaLbrfnqaBLjNC/Svj1yQf9GX3BOdEwU=
-----END CERTIFICATE-----
-----BEGIN X509 CRL-----
MIIBgDBqMA0GCSqGSIb3DQEBCwUAMDsxETAPBgNVBAoMCFRlc3QgT3JnMSYwJAYD
VQQDDB1UZXN0IE9yZyBQcm92aXNpb25pbmcgQ0EgUm9vdBcNMTUwNDI0MTQxNDA4
WhcNMjgxMjMxMTQxNDA4WjANBgkqhkiG9w0BAQsFAAOCAQEAo31STXRKkYbqedhd
W2CZ8+lDyyeh2L4myRVtbu2nf9h7bpGI09x8WkBqTQoNRuXhBxLE4R26JugKaKtI
bSucSECGwpV0j2G5KBneAEIzB+NRmvED1eqApoBEYk+iAm7wnxzC53lu+KUwDU4K
9CUG7b6bFilLatXKPOArO0pRACRuS700u7LVrNNwDoV+41g8yEVRX7Wwj+U+iQPS
kG/AyRGbW4kh1y2vzc+GstUKeZRXY5ENizqSSXCYN9nEwaYZUNeKSz66qMueG1zO
LvQpGWKB0F2wkM9nAsVqNRLt9smNhZ6sZYU8YSbQkWpFnrhgaRTd26letlpvy9U/
8ctX+A==
-----END X509 CRL-----
Certificate:
    Data:
        Version: 3 (0x2)
        Serial Number: 3 (0x3)
    Signature Algorithm: sha256WithRSAEncryption
        Issuer: O=Test Org, CN=Test Org Provisioning CA Root
        Validity
            Not Before: Jan  1 00:00:00 1970 GMT
            Not After : Dec 31 23:59:59 9999 GMT
        Subject: O=Test Org, CN=Test Org Provisioning CA Development
        Subject Public Key Info:
            Public Key Algorithm: rsaEncryption
                Public-Key: (2048 bit)
                Modulus:
                    00:c5:e5:39:6a:55:29:10:b1:50:c8:11:98:58:fe:
                    09:9c:34:e6:ac:20:2b:fd:4d:63:b4:d7:92:60:ad:
                    8a:28:ec:0f:d7:ba:8b:1d:74:e9:52:24:49:6a:9d:
                    ca:0e:02:72:b2:7a:c2:1e:e3:df:cf:5a:62:db:28:
                    e8:98:74:90:ef:4a:f0:f0:6c:ed:21:ba:26:5e:f0:
                    ba:79:ad:a6:36:43:d1:e2:74:c6:84:af:44:ac:55:
                    1e:bb:79:88:36:80:b9:42:1e:8c:b7:5e:cd:60:7f:
                    e9:75:79:80:20:cc:1f:27:87:fd:74:bb:93:be:4f:
                    66:a2:cc:32:9f:96:cc:40:d0:11:21:a8:32:dd:7f:
                    e3:8d:14:9e:67:fc:92:e2:3c:53:2d:e7:05:bc:ad:
                    20:42:31:68:86:e8:57:62:92:f6:00:86:be:74:e7:
                    b1:dd:c4:00:88:a6:f4:1b:81:e5:ce:57:f4:83:cd:
                    5d:48:31:7a:3a:dd:10:d7:a3:13:9f:13:7e:7d:cc:
                    2e:27:5d:b1:35:97:48:f0:a9:e4:f4:72:1c:cf:54:
                    b3:0a:f4:13:0b:af:9f:27:d5:d1:b7:63:0d:23:76:
                    cd:dc:19:f6:c7:9f:06:45:e3:79:ed:f5:7a:34:fb:
                    ce:42:78:07:85:65:ee:67:96:e4:b5:83:4a:0d:4e:
                    f4:d3
                Exponent: 65537 (0x10001)
        X509v3 extensions:
            X509v3 Subject Key Identifier: 
                80:5A:06:66:1D:27:94:AC:D4:4A:FB:3E:FE:E4:FC:9C:BC:75:55:FE
            X509v3 Authority Key Identifier: 
                keyid:20:02:A1:59:1C:07:94:4A:AA:25:27:C9:49:60:BB:14:0F:83:12:08
                DirName:/O=Test Org/CN=Test Org Provisioning CA Root
                serial:01

            X509v3 Basic Constraints: 
                CA:TRUE, pathlen:0
    Signature Algorithm: sha256WithRSAEncryption
         b9:47:70:46:cc:d0:a0:57:b2:2c:18:80:45:b5:ef:aa:47:47:
         f9:c5:33:5d:93:da:ee:29:a6:bc:83:73:b0:fb:63:b9:71:67:
         dd:8e:ab:b0:15:c2:e6:a6:5e:67:b1:0a:3e:1f:ed:56:93:d1:
         23:7d:c3:7c:75:90:5c:8f:fa:6f:6e:16:07:cb:77:a7:a7:f3:
         30:62:69:de:24:0b:1c:f1:c9:90:c4:95:ae:ae:39:2f:20:5c:
         d7:89:9f:c6:0b:8f:0a:4c:b4:2b:b0:f4:6c:24:17:98:49:7c:
         96:a9:9f:ff:3d:7e:9f:b6:c5:b3:a9:67:71:c8:96:6b:b9:0b:
         9d:39:e7:e1:e5:27:64:dc:be:c2:82:7a:e2:30:fe:29:c1:39:
         98:99:70:5e:34:2d:1e:e2:4e:92:c5:f3:a2:b3:24:3a:9f:f2:
         1d:10:1e:af:e4:c5:81:53:61:90:91:52:9e:0e:38:94:e7:2f:
         1e:34:8b:54:2c:9a:45:1e:f2:75:d9:ce:ec:a7:a3:59:8d:bf:
         b2:49:8c:6a:61:b2:b6:70:24:66:80:30:85:f1:f0:28:89:8b:
         52:87:fd:52:c1:a5:d6:41:7c:c6:64:91:98:5f:cc:1b:48:4e:
         54:7b:77:ab:00:f5:d8:fa:76:75:50:0d:44:c3:d1:90:0c:93:
         75:0f:10:dc
-----BEGIN CERTIFICATE-----
MIIDlTCCAn2gAwIBAgIBAzANBgkqhkiG9w0BAQsFADA7MREwDwYDVQQKDAhUZXN0
IE9yZzEmMCQGA1UEAwwdVGVzdCBPcmcgUHJvdmlzaW9uaW5nIENBIFJvb3QwIhgP
MTk3MDAxMDEwMDAwMDBaGA85OTk5MTIzMTIzNTk1OVowQjERMA8GA1UECgwIVGVz
dCBPcmcxLTArBgNVBAMMJFRlc3QgT3JnIFByb3Zpc2lvbmluZyBDQSBEZXZlbG9w
bWVudDCCASIwDQYJKoZIhvcNAQEBBQADggEPADCCAQoCggEBAMXlOWpVKRCxUMgR
mFj+CZw05qwgK/1NY7TXkmCtiijsD9e6ix106VIkSWqdyg4CcrJ6wh7j389aYtso
6Jh0kO9K8PBs7SG6Jl7wunmtpjZD0eJ0xoSvRKxVHrt5iDaAuUIejLdezWB/6XV5
gCDMHyeH/XS7k75PZqLMMp+WzEDQESGoMt1/440Unmf8kuI8Uy3nBbytIEIxaIbo
V2KS9gCGvnTnsd3EAIim9BuB5c5X9IPNXUgxejrdENejE58Tfn3MLiddsTWXSPCp
5PRyHM9Uswr0EwuvnyfV0bdjDSN2zdwZ9sefBkXjee31ejT7zkJ4B4Vl7meW5LWD
Sg1O9NMCAwEAAaOBmDCBlTAdBgNVHQ4EFgQUgFoGZh0nlKzUSvs+/uT8nLx1Vf4w
YwYDVR0jBFwwWoAUIAKhWRwHlEqqJSfJSWC7FA+DEgihP6Q9MDsxETAPBgNVBAoM
CFRlc3QgT3JnMSYwJAYDVQQDDB1UZXN0IE9yZyBQcm92aXNpb25pbmcgQ0EgUm9v
dIIBATAPBgNVHRMECDAGAQH/AgEAMA0GCSqGSIb3DQEBCwUAA4IBAQC5R3BGzNCg
V7IsGIBFte+qR0f5xTNdk9ruKaa8g3Ow+2O5cWfdjquwFcLmpl5nsQo+H+1Wk9Ej
fcN8dZBcj/pvbhYHy3enp/MwYmneJAsc8cmQxJWurjkvIFzXiZ/GC48KTLQrsPRs
JBeYSXyWqZ//PX6ftsWzqWdxyJZruQudOefh5Sdk3L7CgnriMP4pwTmYmXBeNC0e
4k6SxfOisyQ6n/IdEB6v5MWBU2GQkVKeDjiU5y8eNItULJpFHvJ12c7sp6NZjb+y
SYxqYbK2cCRmgDCF8fAoiYtSh/1SwaXWQXzGZJGYX8wbSE5Ue3erAPXY+nZ1UA1E
w9GQDJN1DxDc
-----END CERTIFICATE-----
-----BEGIN X509 CRL-----
MIIBnjCBhzANBgkqhkiG9w0BAQsFADBCMREwDwYDVQQKDAhUZXN0IE9yZzEtMCsG
A1UEAwwkVGVzdCBPcmcgUHJvdmlzaW9uaW5nIENBIERldmVsb3BtZW50Fw0xNTA0
MjQxNDE0MDhaFw0yODEyMzExNDE0MDhaMBQwEgIBAhcNMTUwNDI0MTQxNDA4WjAN
BgkqhkiG9w0BAQsFAAOCAQEARTyH2YnWKeTVFy8Yb/kiThaK0qay40Fyxb+zkVFH
dKUNh4GViWHLxaqUSnGw+UaHKoMEONul0llYxGN6sbeRRQHYmJh2bmXVPBANNMON
WOPYyRNa5I+EsaMKYRvlPCadxnUyy/bn2eJeieOX+qookU2+WnUUQWfRtP4KYbXQ
1gi+HEWcu2GXqxaoZda54rOr8WAMhR0OHwfnBfuoBC9oQiqIkbVgf0aVsOa7AWi3
PH5REoeY61Slr/RsO+EFQdnzlBHZVeYF8+NaoeEh1uVnRNa0Qo1oaA4kElNagyNk
+X1KrTl2C+x5CavD1vPf2nqQe2xTigr1BCUbKNIRNm8d9A==
-----END X509 CRL-----
