Certificate:
    Data:
        Version: 3 (0x2)
        Serial Number: 2 (0x2)
    Signature Algorithm: sha256WithRSAEncryption
        Issuer: O=Test Org, CN=Test Org Provisioning CA Root
        Validity
            Not Before: Jan  1 00:00:00 1970 GMT
            Not After : Dec 31 23:59:59 9999 GMT
        Subject: O=Test Org, CN=Test Org Provisioning CA Release
        Subject Public Key Info:
            Public Key Algorithm: rsaEncryption
                Public-Key: (2048 bit)
                Modulus:
                    00:c7:e2:24:66:5d:f8:16:3d:6b:f5:54:16:11:c4:
                    c0:fe:24:24:8b:21:e9:f6:30:34:f3:22:91:09:cc:
                    3e:25:f8:a7:f9:5f:9f:48:92:c4:f8:66:5f:20:3c:
                    a8:52:91:55:44:fa:b7:7a:a7:4d:54:31:0e:c1:0b:
                    82:49:2e:57:c3:3d:cf:bc:9e:63:f4:1b:de:e7:b7:
                    0e:5d:c3:e3:70:3c:bc:60:01:ef:77:3b:99:38:eb:
                    29:ef:1d:8e:ce:fd:79:55:fd:ea:63:13:8f:02:e7:
                    63:ab:1a:7b:6c:a4:1b:ae:2d:81:3c:05:8e:69:a4:
                    2d:bc:f6:4d:b3:2d:71:50:25:c7:25:78:02:3d:7b:
                    01:23:40:24:3c:02:79:a9:2b:c6:a6:d8:bd:61:eb:
                    d5:74:a6:89:03:c4:fd:d1:7c:ca:a5:79:bb:bc:13:
                    90:23:15:c6:6d:79:6c:24:36:28:7d:de:e8:12:0e:
                    68:9a:44:b2:e0:1b:86:10:f1:27:98:a5:39:c0:54:
                    64:33:b6:80:84:a4:f8:b3:a2:f3:3e:f5:09:87:84:
                    41:3f:1b:df:2e:11:7d:d3:7a:6a:61:c4:b5:6c:9a:
                    04:33:5a:40:b5:e8:31:39:70:72:59:7b:a2:9a:dd:
                    d8:ef:31:c0:0d:49:28:30:19:be:d0:56:ac:dc:36:
                    c5:5f
                Exponent: 65537 (0x10001)
        X509v3 extensions:
            X509v3 Subject Key Identifier: 
                F8:5D:44:F5:FC:F7:0D:2B:A2:CA:C3:F0:78:69:80:02:C8:5A:BF:3E
            X509v3 Authority Key Identifier: 
                keyid:20:02:A1:59:1C:07:94:4A:AA:25:27:C9:49:60:BB:14:0F:83:12:08
                DirName:/O=Test Org/CN=Test Org Provisioning CA Root
                serial:01

            X509v3 Basic Constraints: 
                CA:TRUE, pathlen:0
    Signature Algorithm: sha256WithRSAEncryption
         b6:22:b4:f3:dc:46:aa:30:99:38:0b:b2:08:9c:76:59:df:12:
         ae:d3:a2:77:8c:4a:ac:82:98:34:f2:34:d6:d8:ed:fb:6f:74:
         02:0d:ac:fa:4a:e2:d5:4e:e3:68:5f:20:31:e4:7a:3b:c3:34:
         20:b8:c4:8a:99:23:1b:fa:80:79:c5:fc:f4:35:c2:72:50:b9:
         cb:2a:ce:01:9f:18:fd:48:d9:0f:32:5c:83:6d:e1:39:48:c2:
         01:7d:54:ca:d6:b2:7d:f1:b3:48:d3:c6:f0:13:cd:3a:ad:c2:
         88:67:f9:68:1e:d6:78:b4:e9:1c:46:6a:3c:c2:7e:e8:e9:a5:
         1e:3b:48:54:8a:af:67:66:29:48:7c:3d:f3:ab:eb:0d:52:5b:
         06:ce:5f:42:32:21:87:35:76:94:c4:72:d5:b3:0a:18:c9:75:
         66:8c:81:eb:c7:08:c9:b6:e0:00:4b:e4:9b:47:d8:ff:cd:7d:
         d8:a0:87:a3:2a:f4:f7:9f:46:74:aa:cc:ff:46:c5:ea:f1:76:
         ea:a9:42:be:ad:82:92:57:f8:d8:3d:72:92:30:d2:a7:78:b0:
         d2:53:65:6d:c4:4d:37:cf:19:f1:c5:2a:7c:23:b8:e2:2f:9d:
         62:c8:e2:04:c9:e7:04:1b:5f:81:2e:64:a0:4f:ef:b1:8d:6a:
         b9:3d:f7:bc
-----BEGIN CERTIFICATE-----
MIIDkTCCAnmgAwIBAgIBAjANBgkqhkiG9w0BAQsFADA7MREwDwYDVQQKDAhUZXN0
IE9yZzEmMCQGA1UEAwwdVGVzdCBPcmcgUHJvdmlzaW9uaW5nIENBIFJvb3QwIhgP
MTk3MDAxMDEwMDAwMDBaGA85OTk5MTIzMTIzNTk1OVowPjERMA8GA1UECgwIVGVz
dCBPcmcxKTAnBgNVBAMMIFRlc3QgT3JnIFByb3Zpc2lvbmluZyBDQSBSZWxlYXNl
MIIBIjANBgkqhkiG9w0BAQEFAAOCAQ8AMIIBCgKCAQEAx+IkZl34Fj1r9VQWEcTA
/iQkiyHp9jA08yKRCcw+Jfin+V+fSJLE+GZfIDyoUpFVRPq3eqdNVDEOwQuCSS5X
wz3PvJ5j9Bve57cOXcPjcDy8YAHvdzuZOOsp7x2Ozv15Vf3qYxOPAudjqxp7bKQb
ri2BPAWOaaQtvPZNsy1xUCXHJXgCPXsBI0AkPAJ5qSvGpti9YevVdKaJA8T90XzK
pXm7vBOQIxXGbXlsJDYofd7oEg5omkSy4BuGEPEnmKU5wFRkM7aAhKT4s6LzPvUJ
h4RBPxvfLhF903pqYcS1bJoEM1pAtegxOXByWXuimt3Y7zHADUkoMBm+0Fas3DbF
XwIDAQABo4GYMIGVMB0GA1UdDgQWBBT4XUT1/PcNK6LKw/B4aYACyFq/PjBjBgNV
HSMEXDBagBQgAqFZHAeUSqolJ8lJYLsUD4MSCKE/pD0wOzERMA8GA1UECgwIVGVz
dCBPcmcxJjAkBgNVBAMMHVRlc3QgT3JnIFByb3Zpc2lvbmluZyBDQSBSb290ggEB
MA8GA1UdEwQIMAYBAf8CAQAwDQYJKoZIhvcNAQELBQADggEBALYitPPcRqowmTgL
sgicdlnfEq7ToneMSqyCmDTyNNbY7ftvdAINrPpK4tVO42hfIDHkejvDNCC4xIqZ
Ixv6gHnF/PQ1wnJQucsqzgGfGP1I2Q8yXINt4TlIwgF9VMrWsn3xs0jTxvATzTqt
wohn+Wge1ni06RxGajzCfujppR47SFSKr2dmKUh8PfOr6w1SWwbOX0IyIYc1dpTE
ctWzChjJdWaMgevHCMm24ABL5JtH2P/Nfdigh6Mq9PefRnSqzP9GxerxduqpQr6t
gpJX+Ng9cpIw0qd4sNJTZW3ETTfPGfHFKnwjuOIvnWLI4gTJ5wQbX4EuZKBP77GN
ark997w=
-----END CERTIFICATE-----
