Certificate:
    Data:
        Version: 3 (0x2)
        Serial Number: 1 (0x1)
    Signature Algorithm: sha256WithRSAEncryption
        Issuer: O=Test Org, CN=Test Org Provisioning CA Release
        Validity
            Not Before: Jan  1 00:00:00 1970 GMT
            Not After : Dec 31 23:59:59 9999 GMT
        Subject: O=Test Org, CN=Test Org Provisioning CA Release
        Subject Public Key Info:
            Public Key Algorithm: rsaEncryption
                Public-Key: (2048 bit)
                Modulus:
                    00:bc:9d:cb:7a:c6:e1:07:23:b6:6c:d0:8f:86:5e:
                    6c:b4:00:49:65:38:f1:aa:46:0d:68:0c:8b:95:89:
                    32:af:bd:1c:52:11:42:9e:8e:0d:aa:36:65:f5:53:
                    f9:5d:3d:22:a2:f9:49:3f:ee:8d:dd:cf:2a:31:43:
                    ae:e4:0b:b2:c8:e0:a3:bc:9b:24:e4:de:c0:8c:9f:
                    5f:d6:3f:dd:7b:b9:e4:bb:f8:42:fb:88:12:ae:51:
                    2b:c9:e9:c6:5d:87:99:cb:ed:84:61:5f:f8:5e:0e:
                    6e:7f:33:a8:eb:33:37:bb:d2:76:f4:0e:8d:4e:c4:
                    4a:ae:94:bf:e9:23:65:e8:29:bf:81:26:21:17:78:
                    61:ed:78:42:3d:3a:1a:d3:c9:6c:44:29:84:a9:3f:
                    6e:6a:f7:e2:b8:52:ec:83:07:51:fb:20:0d:89:15:
                    45:71:61:c9:dc:0a:da:ff:a5:80:3e:7b:ba:d0:5a:
                    b0:c6:92:f7:84:f4:8b:75:15:a0:c7:c3:79:ae:21:
                    e8:95:12:8b:3b:6e:02:8d:04:14:40:c1:cc:ed:fe:
                    98:ec:30:62:10:32:4a:fd:02:e9:da:3f:3b:5a:19:
                    7b:3c:88:22:f3:c2:c2:3a:e2:0f:bf:b2:29:64:98:
                    55:aa:21:e8:64:f0:50:0a:75:13:b0:b7:f5:f4:4a:
                    53:cb
                Exponent: 65537 (0x10001)
        X509v3 extensions:
            X509v3 Subject Key Identifier: 
                BF:41:C9:7B:30:19:92:43:B5:8B:AA:F2:3D:DC:E1:B4:CD:23:67:23
            X509v3 Authority Key Identifier: 
                keyid:BF:41:C9:7B:30:19:92:43:B5:8B:AA:F2:3D:DC:E1:B4:CD:23:67:23
                DirName:/O=Test Org/CN=Test Org Provisioning CA Release
                serial:01

            X509v3 Basic Constraints: 
                CA:TRUE
    Signature Algorithm: sha256WithRSAEncryption
         19:2c:41:18:51:59:cd:b3:5d:60:b0:ff:75:d0:69:89:c3:2b:
         93:22:c7:b5:b9:e1:d4:ed:3b:7d:26:50:6e:fa:21:42:83:34:
         ce:0c:47:69:83:bc:ef:f6:0a:11:6e:ca:0d:76:2e:70:ad:3d:
         04:f7:73:59:48:e6:0d:45:55:b3:29:6a:a0:fb:09:93:b6:4c:
         7b:a4:4c:aa:d0:6e:10:c0:5c:6c:3c:b3:52:4f:13:b5:db:24:
         70:ab:85:ef:30:ff:25:d9:fd:7a:da:f2:51:2b:52:d6:9f:60:
         d9:65:18:f6:3e:30:57:5c:63:1c:a7:3a:a2:cd:b4:d8:c1:ed:
         f2:37:46:cf:1a:4c:a6:b1:9d:40:53:5d:ad:22:7a:7c:eb:bf:
         58:71:a1:3e:c3:2d:09:d1:b9:cf:32:7b:d0:52:38:d1:bc:aa:
         99:2d:c5:3e:85:4a:7c:bd:7f:c9:0c:52:e6:1d:12:69:7d:78:
         61:1e:79:e8:eb:b4:5b:4c:c7:7b:b0:66:0d:a7:c4:da:75:5e:
         98:90:95:f7:c9:4e:5a:0d:24:42:3a:92:80:7a:75:90:9e:42:
         9d:ab:96:a1:4d:19:2e:26:5c:a2:32:d6:18:f5:69:e3:89:56:
         88:25:4e:0a:ac:44:91:5d:e5:a9:11:93:e0:93:b0:59:41:ae:
         86:5b:38:b3
-----BEGIN CERTIFICATE-----
MIIDlDCCAnygAwIBAgIBATANBgkqhkiG9w0BAQsFADA+MREwDwYDVQQKDAhUZXN0
IE9yZzEpMCcGA1UEAwwgVGVzdCBPcmcgUHJvdmlzaW9uaW5nIENBIFJlbGVhc2Uw
IhgPMTk3MDAxMDEwMDAwMDBaGA85OTk5MTIzMTIzNTk1OVowPjERMA8GA1UECgwI
VGVzdCBPcmcxKTAnBgNVBAMMIFRlc3QgT3JnIFByb3Zpc2lvbmluZyBDQSBSZWxl
YXNlMIIBIjANBgkqhkiG9w0BAQEFAAOCAQ8AMIIBCgKCAQEAvJ3LesbhByO2bNCP
hl5stABJZTjxqkYNaAyLlYkyr70cUhFCno4NqjZl9VP5XT0iovlJP+6N3c8qMUOu
5AuyyOCjvJsk5N7AjJ9f1j/de7nku/hC+4gSrlEryenGXYeZy+2EYV/4Xg5ufzOo
6zM3u9J29A6NTsRKrpS/6SNl6Cm/gSYhF3hh7XhCPToa08lsRCmEqT9uavfiuFLs
gwdR+yANiRVFcWHJ3Ara/6WAPnu60FqwxpL3hPSLdRWgx8N5riHolRKLO24CjQQU
QMHM7f6Y7DBiEDJK/QLp2j87Whl7PIgi88LCOuIPv7IpZJhVqiHoZPBQCnUTsLf1
9EpTywIDAQABo4GYMIGVMB0GA1UdDgQWBBS/Qcl7MBmSQ7WLqvI93OG0zSNnIzBm
BgNVHSMEXzBdgBS/Qcl7MBmSQ7WLqvI93OG0zSNnI6FCpEAwPjERMA8GA1UECgwI
VGVzdCBPcmcxKTAnBgNVBAMMIFRlc3QgT3JnIFByb3Zpc2lvbmluZyBDQSBSZWxl
YXNlggEBMAwGA1UdEwQFMAMBAf8wDQYJKoZIhvcNAQELBQADggEBABksQRhRWc2z
XWCw/3XQaYnDK5Mix7W54dTtO30mUG76IUKDNM4MR2mDvO/2ChFuyg12LnCtPQT3
c1lI5g1FVbMpaqD7CZO2THukTKrQbhDAXGw8s1JPE7XbJHCrhe8w/yXZ/Xra8lEr
UtafYNllGPY+MFdcYxynOqLNtNjB7fI3Rs8aTKaxnUBTXa0ienzrv1hxoT7DLQnR
uc8ye9BSONG8qpktxT6FSny9f8kMUuYdEml9eGEeeejrtFtMx3uwZg2nxNp1XpiQ
lffJTloNJEI6koB6dZCeQp2rlqFNGS4mXKIy1hj1aeOJVoglTgqsRJFd5akRk+CT
sFlBroZbOLM=
-----END CERTIFICATE-----
-----BEGIN X509 CRL-----
MIIBgzBtMA0GCSqGSIb3DQEBCwUAMD4xETAPBgNVBAoMCFRlc3QgT3JnMSkwJwYD
VQQDDCBUZXN0IE9yZyBQcm92aXNpb25pbmcgQ0EgUmVsZWFzZRcNMTUwNDI4MDky
MjAzWhcNMjkwMTA0MDkyMjAzWjANBgkqhkiG9w0BAQsFAAOCAQEAqDda6fQJqO0T
KctQiO1dxiqBXrGwzoW1o+p66hIZGo3+Detc3Cm9KJuB7Z5BCkUvNELTwNAOwdhO
Nlflr5s4CobcRHr2PLdhbFmqkNsAlxWM9q65GcbDTpYmy49j5Kx7N1MOSNZhyyzl
Aomj0JNK6QIWxzqikm1YBIoh1o5m18ZOWJMC9QAV+cOoFMuoNXr1BXPcE2OuWeUU
H+XTJQyq4c0VmvJpvK1QOjEBw5TfRGAW5Yy0aRpne/fLygJwxy9Yl96NeehKvLKY
3WVshVQbEEZoXS3PSO3b3lTTUOCXqCFdwzztvKV8HP+rRx+VLhx9WsCrm3DGXCtN
nTyvlYybJw==
-----END X509 CRL-----
