Certificate:
    Data:
        Version: 3 (0x2)
        Serial Number: 1 (0x1)
    Signature Algorithm: sha256WithRSAEncryption
        Issuer: O=Test Org, CN=Test Org Provisioning CA Root
        Validity
            Not Before: Jan  1 00:00:00 1970 GMT
            Not After : Dec 31 23:59:59 9999 GMT
        Subject: O=Test Org, CN=Test Org Provisioning CA Root
        Subject Public Key Info:
            Public Key Algorithm: rsaEncryption
                Public-Key: (2048 bit)
                Modulus:
                    00:db:e6:0b:9b:bf:7b:cd:3a:b7:03:2e:fe:a8:45:
                    18:de:69:ee:af:fd:3c:23:5e:6a:f7:14:a6:08:97:
                    0a:62:45:72:4b:1d:0d:49:35:32:37:8a:81:92:90:
                    93:9e:28:1a:a2:2b:55:03:3a:0a:22:8d:b5:50:9a:
                    31:0c:59:88:92:05:ad:31:06:bf:7b:e0:11:81:25:
                    16:db:69:37:fa:fe:8b:e6:dd:4d:10:24:d3:61:b6:
                    3d:8f:1f:20:64:7d:35:3c:1f:24:fc:3b:71:0e:bf:
                    2d:09:ec:30:28:d6:e5:49:17:f9:68:9e:1d:09:04:
                    16:85:21:28:c0:c7:00:ef:f5:8f:26:2e:d0:f2:07:
                    df:ad:c6:9f:21:bb:b4:bc:e6:c2:93:b9:ea:82:61:
                    70:fb:49:d5:92:96:5f:a6:39:e0:a3:7c:15:c2:0e:
                    1e:bc:f7:c5:24:e7:20:a2:f2:84:38:63:90:f9:f2:
                    f0:03:f8:94:19:69:49:ac:36:b2:03:97:a6:ed:28:
                    bf:fd:80:0c:fa:90:b9:27:ce:f3:9f:8e:9b:99:f6:
                    18:80:df:77:bf:ec:3d:ec:6c:96:ca:54:9e:d5:52:
                    9a:b4:66:2a:6d:12:65:29:89:af:0b:76:49:3d:cf:
                    a3:7b:90:5c:f9:5e:8f:a2:86:a9:db:4a:eb:b4:48:
                    29:33
                Exponent: 65537 (0x10001)
        X509v3 extensions:
            X509v3 Subject Key Identifier: 
                20:02:A1:59:1C:07:94:4A:AA:25:27:C9:49:60:BB:14:0F:83:12:08
            X509v3 Authority Key Identifier: 
                keyid:20:02:A1:59:1C:07:94:4A:AA:25:27:C9:49:60:BB:14:0F:83:12:08
                DirName:/O=Test Org/CN=Test Org Provisioning CA Root
                serial:01

            X509v3 Basic Constraints: 
                CA:TRUE
    Signature Algorithm: sha256WithRSAEncryption
         3b:b3:4a:89:bb:3c:5f:ed:53:5d:16:a2:c9:ce:85:ba:a0:d1:
         e5:d1:0b:13:df:5b:0a:61:4a:59:ba:27:8b:45:34:1e:5f:6e:
         1f:13:88:d3:68:9a:22:42:81:d7:da:f5:da:35:ee:ec:1e:60:
         fd:f9:81:69:b2:4a:1b:64:57:e2:53:ea:bf:7a:51:f0:8f:f6:
         9f:0f:fd:1e:04:df:0b:0d:4e:03:d5:72:31:2f:fd:1a:e2:b5:
         1b:33:85:fa:07:57:9b:37:32:23:c8:b2:58:97:03:87:ff:76:
         49:9f:5b:9e:3c:57:f9:f8:3d:90:0f:92:bc:d2:e6:d0:37:54:
         c5:1c:7b:e1:48:79:29:78:2f:95:e3:88:95:02:33:96:7d:37:
         99:53:c3:51:0b:02:c4:35:bd:8e:f9:b3:d7:12:87:63:b7:38:
         76:21:81:28:bf:5e:67:18:d5:62:8d:b5:a5:59:79:df:db:f7:
         95:4e:43:29:c2:51:a4:02:c1:5a:21:ac:f4:7a:75:ba:ef:c7:
         18:26:e1:a2:dc:c3:e7:16:dc:94:e0:2c:53:a5:8d:75:44:67:
         59:1c:68:64:c8:f9:6b:ec:f8:5b:56:d2:75:2c:90:c3:84:68:
         b6:eb:7e:7a:9a:04:b8:cd:0b:f4:af:8f:5c:90:7f:d1:97:dc:
         13:9d:13:05
-----BEGIN CERTIFICATE-----
MIIDizCCAnOgAwIBAgIBATANBgkqhkiG9w0BAQsFADA7MREwDwYDVQQKDAhUZXN0
IE9yZzEmMCQGA1UEAwwdVGVzdCBPcmcgUHJvdmlzaW9uaW5nIENBIFJvb3QwIhgP
MTk3MDAxMDEwMDAwMDBaGA85OTk5MTIzMTIzNTk1OVowOzERMA8GA1UECgwIVGVz
dCBPcmcxJjAkBgNVBAMMHVRlc3QgT3JnIFByb3Zpc2lvbmluZyBDQSBSb290MIIB
IjANBgkqhkiG9w0BAQEFAAOCAQ8AMIIBCgKCAQEA2+YLm797zTq3Ay7+qEUY3mnu
r/08I15q9xSmCJcKYkVySx0NSTUyN4qBkpCTnigaoitVAzoKIo21UJoxDFmIkgWt
MQa/e+ARgSUW22k3+v6L5t1NECTTYbY9jx8gZH01PB8k/DtxDr8tCewwKNblSRf5
aJ4dCQQWhSEowMcA7/WPJi7Q8gffrcafIbu0vObCk7nqgmFw+0nVkpZfpjngo3wV
wg4evPfFJOcgovKEOGOQ+fLwA/iUGWlJrDayA5em7Si//YAM+pC5J87zn46bmfYY
gN93v+w97GyWylSe1VKatGYqbRJlKYmvC3ZJPc+je5Bc+V6Pooap20rrtEgpMwID
AQABo4GVMIGSMB0GA1UdDgQWBBQgAqFZHAeUSqolJ8lJYLsUD4MSCDBjBgNVHSME
XDBagBQgAqFZHAeUSqolJ8lJYLsUD4MSCKE/pD0wOzERMA8GA1UECgwIVGVzdCBP
cmcxJjAkBgNVBAMMHVRlc3QgT3JnIFByb3Zpc2lvbmluZyBDQSBSb290ggEBMAwG
A1UdEwQFMAMBAf8wDQYJKoZIhvcNAQELBQADggEBADuzSom7PF/tU10WosnOhbqg
0eXRCxPfWwphSlm6J4tFNB5fbh8TiNNomiJCgdfa9do17uweYP35gWmyShtkV+JT
6r96UfCP9p8P/R4E3wsNTgPVcjEv/RritRszhfoHV5s3MiPIsliXA4f/dkmfW548
V/n4PZAPkrzS5tA3VMUce+FIeSl4L5XjiJUCM5Z9N5lTw1ELAsQ1vY75s9cSh2O3
OHYhgSi/XmcY1WKNtaVZed/b95VOQynCUaQCwVohrPR6dbrvxxgm4aLcw+cW3JTg
LFOljXVEZ1kcaGTI+Wvs+FtW0nUskMOEaLbrfnqaBLjNC/Svj1yQf9GX3BOdEwU=
-----END CERTIFICATE-----
-----BEGIN X509 CRL-----
MIIBgDBqMA0GCSqGSIb3DQEBCwUAMDsxETAPBgNVBAoMCFRlc3QgT3JnMSYwJAYD
VQQDDB1UZXN0IE9yZyBQcm92aXNpb25pbmcgQ0EgUm9vdBcNMTUwNDI0MTQxNDA4
WhcNMjgxMjMxMTQxNDA4WjANBgkqhkiG9w0BAQsFAAOCAQEAo31STXRKkYbqedhd
W2CZ8+lDyyeh2L4myRVtbu2nf9h7bpGI09x8WkBqTQoNRuXhBxLE4R26JugKaKtI
bSucSECGwpV0j2G5KBneAEIzB+NRmvED1eqApoBEYk+iAm7wnxzC53lu+KUwDU4K
9CUG7b6bFilLatXKPOArO0pRACRuS700u7LVrNNwDoV+41g8yEVRX7Wwj+U+iQPS
kG/AyRGbW4kh1y2vzc+GstUKeZRXY5ENizqSSXCYN9nEwaYZUNeKSz66qMueG1zO
LvQpGWKB0F2wkM9nAsVqNRLt9smNhZ6sZYU8YSbQkWpFnrhgaRTd26letlpvy9U/
8ctX+A==
-----END X509 CRL-----
Certificate:
    Data:
        Version: 3 (0x2)
        Serial Number: 2 (0x2)
    Signature Algorithm: sha256WithRSAEncryption
        Issuer: O=Test Org, CN=Test Org Provisioning CA Root
        Validity
            Not Before: Jan  1 00:00:00 1970 GMT
            Not After : Dec 31 23:59:59 9999 GMT
        Subject: O=Test Org, CN=Test Org Provisioning CA Release
        Subject Public Key Info:
            Public Key Algorithm: rsaEncryption
                Public-Key: (2048 bit)
                Modulus:
                    00:c7:e2:24:66:5d:f8:16:3d:6b:f5:54:16:11:c4:
                    c0:fe:24:24:8b:21:e9:f6:30:34:f3:22:91:09:cc:
                    3e:25:f8:a7:f9:5f:9f:48:92:c4:f8:66:5f:20:3c:
                    a8:52:91:55:44:fa:b7:7a:a7:4d:54:31:0e:c1:0b:
                    82:49:2e:57:c3:3d:cf:bc:9e:63:f4:1b:de:e7:b7:
                    0e:5d:c3:e3:70:3c:bc:60:01:ef:77:3b:99:38:eb:
                    29:ef:1d:8e:ce:fd:79:55:fd:ea:63:13:8f:02:e7:
                    63:ab:1a:7b:6c:a4:1b:ae:2d:81:3c:05:8e:69:a4:
                    2d:bc:f6:4d:b3:2d:71:50:25:c7:25:78:02:3d:7b:
                    01:23:40:24:3c:02:79:a9:2b:c6:a6:d8:bd:61:eb:
                    d5:74:a6:89:03:c4:fd:d1:7c:ca:a5:79:bb:bc:13:
                    90:23:15:c6:6d:79:6c:24:36:28:7d:de:e8:12:0e:
                    68:9a:44:b2:e0:1b:86:10:f1:27:98:a5:39:c0:54:
                    64:33:b6:80:84:a4:f8:b3:a2:f3:3e:f5:09:87:84:
                    41:3f:1b:df:2e:11:7d:d3:7a:6a:61:c4:b5:6c:9a:
                    04:33:5a:40:b5:e8:31:39:70:72:59:7b:a2:9a:dd:
                    d8:ef:31:c0:0d:49:28:30:19:be:d0:56:ac:dc:36:
                    c5:5f
                Exponent: 65537 (0x10001)
        X509v3 extensions:
            X509v3 Subject Key Identifier: 
                F8:5D:44:F5:FC:F7:0D:2B:A2:CA:C3:F0:78:69:80:02:C8:5A:BF:3E
            X509v3 Authority Key Identifier: 
                keyid:20:02:A1:59:1C:07:94:4A:AA:25:27:C9:49:60:BB:14:0F:83:12:08
                DirName:/O=Test Org/CN=Test Org Provisioning CA Root
                serial:01

            X509v3 Basic Constraints: 
                CA:TRUE, pathlen:0
    Signature Algorithm: sha256WithRSAEncryption
         b6:22:b4:f3:dc:46:aa:30:99:38:0b:b2:08:9c:76:59:df:12:
         ae:d3:a2:77:8c:4a:ac:82:98:34:f2:34:d6:d8:ed:fb:6f:74:
         02:0d:ac:fa:4a:e2:d5:4e:e3:68:5f:20:31:e4:7a:3b:c3:34:
         20:b8:c4:8a:99:23:1b:fa:80:79:c5:fc:f4:35:c2:72:50:b9:
         cb:2a:ce:01:9f:18:fd:48:d9:0f:32:5c:83:6d:e1:39:48:c2:
         01:7d:54:ca:d6:b2:7d:f1:b3:48:d3:c6:f0:13:cd:3a:ad:c2:
         88:67:f9:68:1e:d6:78:b4:e9:1c:46:6a:3c:c2:7e:e8:e9:a5:
         1e:3b:48:54:8a:af:67:66:29:48:7c:3d:f3:ab:eb:0d:52:5b:
         06:ce:5f:42:32:21:87:35:76:94:c4:72:d5:b3:0a:18:c9:75:
         66:8c:81:eb:c7:08:c9:b6:e0:00:4b:e4:9b:47:d8:ff:cd:7d:
         d8:a0:87:a3:2a:f4:f7:9f:46:74:aa:cc:ff:46:c5:ea:f1:76:
         ea:a9:42:be:ad:82:92:57:f8:d8:3d:72:92:30:d2:a7:78:b0:
         d2:53:65:6d:c4:4d:37:cf:19:f1:c5:2a:7c:23:b8:e2:2f:9d:
         62:c8:e2:04:c9:e7:04:1b:5f:81:2e:64:a0:4f:ef:b1:8d:6a:
         b9:3d:f7:bc
-----BEGIN CERTIFICATE-----
MIIDkTCCAnmgAwIBAgIBAjANBgkqhkiG9w0BAQsFADA7MREwDwYDVQQKDAhUZXN0
IE9yZzEmMCQGA1UEAwwdVGVzdCBPcmcgUHJvdmlzaW9uaW5nIENBIFJvb3QwIhgP
MTk3MDAxMDEwMDAwMDBaGA85OTk5MTIzMTIzNTk1OVowPjERMA8GA1UECgwIVGVz
dCBPcmcxKTAnBgNVBAMMIFRlc3QgT3JnIFByb3Zpc2lvbmluZyBDQSBSZWxlYXNl
MIIBIjANBgkqhkiG9w0BAQEFAAOCAQ8AMIIBCgKCAQEAx+IkZl34Fj1r9VQWEcTA
/iQkiyHp9jA08yKRCcw+Jfin+V+fSJLE+GZfIDyoUpFVRPq3eqdNVDEOwQuCSS5X
wz3PvJ5j9Bve57cOXcPjcDy8YAHvdzuZOOsp7x2Ozv15Vf3qYxOPAudjqxp7bKQb
ri2BPAWOaaQtvPZNsy1xUCXHJXgCPXsBI0AkPAJ5qSvGpti9YevVdKaJA8T90XzK
pXm7vBOQIxXGbXlsJDYofd7oEg5omkSy4BuGEPEnmKU5wFRkM7aAhKT4s6LzPvUJ
h4RBPxvfLhF903pqYcS1bJoEM1pAtegxOXByWXuimt3Y7zHADUkoMBm+0Fas3DbF
XwIDAQABo4GYMIGVMB0GA1UdDgQWBBT4XUT1/PcNK6LKw/B4aYACyFq/PjBjBgNV
HSMEXDBagBQgAqFZHAeUSqolJ8lJYLsUD4MSCKE/pD0wOzERMA8GA1UECgwIVGVz
dCBPcmcxJjAkBgNVBAMMHVRlc3QgT3JnIFByb3Zpc2lvbmluZyBDQSBSb290ggEB
MA8GA1UdEwQIMAYBAf8CAQAwDQYJKoZIhvcNAQELBQADggEBALYitPPcRqowmTgL
sgicdlnfEq7ToneMSqyCmDTyNNbY7ftvdAINrPpK4tVO42hfIDHkejvDNCC4xIqZ
Ixv6gHnF/PQ1wnJQucsqzgGfGP1I2Q8yXINt4TlIwgF9VMrWsn3xs0jTxvATzTqt
wohn+Wge1ni06RxGajzCfujppR47SFSKr2dmKUh8PfOr6w1SWwbOX0IyIYc1dpTE
ctWzChjJdWaMgevHCMm24ABL5JtH2P/Nfdigh6Mq9PefRnSqzP9GxerxduqpQr6t
gpJX+Ng9cpIw0qd4sNJTZW3ETTfPGfHFKnwjuOIvnWLI4gTJ5wQbX4EuZKBP77GN
ark997w=
-----END CERTIFICATE-----
-----BEGIN X509 CRL-----
MIIBgzBtMA0GCSqGSIb3DQEBCwUAMD4xETAPBgNVBAoMCFRlc3QgT3JnMSkwJwYD
VQQDDCBUZXN0IE9yZyBQcm92aXNpb25pbmcgQ0EgUmVsZWFzZRcNMTUwNDI0MTQx
NDA4WhcNMjgxMjMxMTQxNDA4WjANBgkqhkiG9w0BAQsFAAOCAQEAuxI0KyC5e1YT
53EIPVgoVC+RfucskuhC7KmglHcNfYbn5MECqmdR+r1YwkCPLF258JHINjgJKntf
A7PKiN8tANBfO7guZkjwD8SRUUjEuA8zKmDRBgEXUdJGrnwok+BbCt9wQV6MdtST
3/A0tWTfU3VV78ONVQuZokR/JmYUpfhlh8RVjsg24cg20ixC2hJjiUEiE0czT2Cu
O0rG6pBr0iyftn2BQdrVW65NjjSx0vq3vwFykbIZ9FbHa9YIkELsIuopZFp9uCfL
uDHksXpB7sxYMfR/yMwCUOTPkF3RwzKujOMg/yVjgRwGkQsBwCrd97CKPhA7rVdz
iMYjYnhg5g==
-----END X509 CRL-----
