Certificate:
    Data:
        Version: 3 (0x2)
        Serial Number: 1 (0x1)
    Signature Algorithm: sha256WithRSAEncryption
        Issuer: O=Test Org, CN=Test Org Provisioning CA Root
        Validity
            Not Before: Jan  1 00:00:00 1970 GMT
            Not After : Dec 31 23:59:59 9999 GMT
        Subject: O=Test Org, CN=Test Org Provisioning CA Root
        Subject Public Key Info:
            Public Key Algorithm: rsaEncryption
                Public-Key: (2048 bit)
                Modulus:
                    00:db:e6:0b:9b:bf:7b:cd:3a:b7:03:2e:fe:a8:45:
                    18:de:69:ee:af:fd:3c:23:5e:6a:f7:14:a6:08:97:
                    0a:62:45:72:4b:1d:0d:49:35:32:37:8a:81:92:90:
                    93:9e:28:1a:a2:2b:55:03:3a:0a:22:8d:b5:50:9a:
                    31:0c:59:88:92:05:ad:31:06:bf:7b:e0:11:81:25:
                    16:db:69:37:fa:fe:8b:e6:dd:4d:10:24:d3:61:b6:
                    3d:8f:1f:20:64:7d:35:3c:1f:24:fc:3b:71:0e:bf:
                    2d:09:ec:30:28:d6:e5:49:17:f9:68:9e:1d:09:04:
                    16:85:21:28:c0:c7:00:ef:f5:8f:26:2e:d0:f2:07:
                    df:ad:c6:9f:21:bb:b4:bc:e6:c2:93:b9:ea:82:61:
                    70:fb:49:d5:92:96:5f:a6:39:e0:a3:7c:15:c2:0e:
                    1e:bc:f7:c5:24:e7:20:a2:f2:84:38:63:90:f9:f2:
                    f0:03:f8:94:19:69:49:ac:36:b2:03:97:a6:ed:28:
                    bf:fd:80:0c:fa:90:b9:27:ce:f3:9f:8e:9b:99:f6:
                    18:80:df:77:bf:ec:3d:ec:6c:96:ca:54:9e:d5:52:
                    9a:b4:66:2a:6d:12:65:29:89:af:0b:76:49:3d:cf:
                    a3:7b:90:5c:f9:5e:8f:a2:86:a9:db:4a:eb:b4:48:
                    29:33
                Exponent: 65537 (0x10001)
        X509v3 extensions:
            X509v3 Subject Key Identifier: 
                20:02:A1:59:1C:07:94:4A:AA:25:27:C9:49:60:BB:14:0F:83:12:08
            X509v3 Authority Key Identifier: 
                keyid:20:02:A1:59:1C:07:94:4A:AA:25:27:C9:49:60:BB:14:0F:83:12:08
                DirName:/O=Test Org/CN=Test Org Provisioning CA Root
                serial:01

            X509v3 Basic Constraints: 
                CA:TRUE
    Signature Algorithm: sha256WithRSAEncryption
         3b:b3:4a:89:bb:3c:5f:ed:53:5d:16:a2:c9:ce:85:ba:a0:d1:
         e5:d1:0b:13:df:5b:0a:61:4a:59:ba:27:8b:45:34:1e:5f:6e:
         1f:13:88:d3:68:9a:22:42:81:d7:da:f5:da:35:ee:ec:1e:60:
         fd:f9:81:69:b2:4a:1b:64:57:e2:53:ea:bf:7a:51:f0:8f:f6:
         9f:0f:fd:1e:04:df:0b:0d:4e:03:d5:72:31:2f:fd:1a:e2:b5:
         1b:33:85:fa:07:57:9b:37:32:23:c8:b2:58:97:03:87:ff:76:
         49:9f:5b:9e:3c:57:f9:f8:3d:90:0f:92:bc:d2:e6:d0:37:54:
         c5:1c:7b:e1:48:79:29:78:2f:95:e3:88:95:02:33:96:7d:37:
         99:53:c3:51:0b:02:c4:35:bd:8e:f9:b3:d7:12:87:63:b7:38:
         76:21:81:28:bf:5e:67:18:d5:62:8d:b5:a5:59:79:df:db:f7:
         95:4e:43:29:c2:51:a4:02:c1:5a:21:ac:f4:7a:75:ba:ef:c7:
         18:26:e1:a2:dc:c3:e7:16:dc:94:e0:2c:53:a5:8d:75:44:67:
         59:1c:68:64:c8:f9:6b:ec:f8:5b:56:d2:75:2c:90:c3:84:68:
         b6:eb:7e:7a:9a:04:b8:cd:0b:f4:af:8f:5c:90:7f:d1:97:dc:
         13:9d:13:05
-----BEGIN CERTIFICATE-----
MIIDizCCAnOgAwIBAgIBATANBgkqhkiG9w0BAQsFADA7MREwDwYDVQQKDAhUZXN0
IE9yZzEmMCQGA1UEAwwdVGVzdCBPcmcgUHJvdmlzaW9uaW5nIENBIFJvb3QwIhgP
MTk3MDAxMDEwMDAwMDBaGA85OTk5MTIzMTIzNTk1OVowOzERMA8GA1UECgwIVGVz
dCBPcmcxJjAkBgNVBAMMHVRlc3QgT3JnIFByb3Zpc2lvbmluZyBDQSBSb290MIIB
IjANBgkqhkiG9w0BAQEFAAOCAQ8AMIIBCgKCAQEA2+YLm797zTq3Ay7+qEUY3mnu
r/08I15q9xSmCJcKYkVySx0NSTUyN4qBkpCTnigaoitVAzoKIo21UJoxDFmIkgWt
MQa/e+ARgSUW22k3+v6L5t1NECTTYbY9jx8gZH01PB8k/DtxDr8tCewwKNblSRf5
aJ4dCQQWhSEowMcA7/WPJi7Q8gffrcafIbu0vObCk7nqgmFw+0nVkpZfpjngo3wV
wg4evPfFJOcgovKEOGOQ+fLwA/iUGWlJrDayA5em7Si//YAM+pC5J87zn46bmfYY
gN93v+w97GyWylSe1VKatGYqbRJlKYmvC3ZJPc+je5Bc+V6Pooap20rrtEgpMwID
AQABo4GVMIGSMB0GA1UdDgQWBBQgAqFZHAeUSqolJ8lJYLsUD4MSCDBjBgNVHSME
XDBagBQgAqFZHAeUSqolJ8lJYLsUD4MSCKE/pD0wOzERMA8GA1UECgwIVGVzdCBP
cmcxJjAkBgNVBAMMHVRlc3QgT3JnIFByb3Zpc2lvbmluZyBDQSBSb290ggEBMAwG
A1UdEwQFMAMBAf8wDQYJKoZIhvcNAQELBQADggEBADuzSom7PF/tU10WosnOhbqg
0eXRCxPfWwphSlm6J4tFNB5fbh8TiNNomiJCgdfa9do17uweYP35gWmyShtkV+JT
6r96UfCP9p8P/R4E3wsNTgPVcjEv/RritRszhfoHV5s3MiPIsliXA4f/dkmfW548
V/n4PZAPkrzS5tA3VMUce+FIeSl4L5XjiJUCM5Z9N5lTw1ELAsQ1vY75s9cSh2O3
OHYhgSi/XmcY1WKNtaVZed/b95VOQynCUaQCwVohrPR6dbrvxxgm4aLcw+cW3JTg
LFOljXVEZ1kcaGTI+Wvs+FtW0nUskMOEaLbrfnqaBLjNC/Svj1yQf9GX3BOdEwU=
-----END CERTIFICATE-----
-----BEGIN X509 CRL-----
MIIBgDBqMA0GCSqGSIb3DQEBCwUAMDsxETAPBgNVBAoMCFRlc3QgT3JnMSYwJAYD
VQQDDB1UZXN0IE9yZyBQcm92aXNpb25pbmcgQ0EgUm9vdBcNMTUwNDI0MTQxNDA4
WhcNMjgxMjMxMTQxNDA4WjANBgkqhkiG9w0BAQsFAAOCAQEAo31STXRKkYbqedhd
W2CZ8+lDyyeh2L4myRVtbu2nf9h7bpGI09x8WkBqTQoNRuXhBxLE4R26JugKaKtI
bSucSECGwpV0j2G5KBneAEIzB+NRmvED1eqApoBEYk+iAm7wnxzC53lu+KUwDU4K
9CUG7b6bFilLatXKPOArO0pRACRuS700u7LVrNNwDoV+41g8yEVRX7Wwj+U+iQPS
kG/AyRGbW4kh1y2vzc+GstUKeZRXY5ENizqSSXCYN9nEwaYZUNeKSz66qMueG1zO
LvQpGWKB0F2wkM9nAsVqNRLt9smNhZ6sZYU8YSbQkWpFnrhgaRTd26letlpvy9U/
8ctX+A==
-----END X509 CRL-----
Certificate:
    Data:
        Version: 3 (0x2)
        Serial Number: 5 (0x5)
        Signature Algorithm: sha256WithRSAEncryption
        Issuer: O=Test Org, CN=Test Org Provisioning CA Root
        Validity
            Not Before: Jan  1 00:00:00 1970 GMT
            Not After : Dec 31 23:59:59 9999 GMT
        Subject: O=Test Org, CN=Test Org Provisioning CA Web
        Subject Public Key Info:
            Public Key Algorithm: rsaEncryption
                RSA Public-Key: (2048 bit)
                Modulus:
                    00:aa:3b:e9:83:31:1c:78:6d:26:14:c3:52:4c:74:
                    9e:2a:ab:92:67:26:a9:fa:69:2b:ef:1d:d8:d9:49:
                    61:04:c5:82:75:69:bd:16:39:4b:ab:d4:59:20:2e:
                    5c:80:5a:fd:f0:5f:ab:e8:61:fa:34:92:1f:56:42:
                    06:62:e7:f0:73:5f:50:63:cf:a4:c2:15:ff:b0:b8:
                    5a:ca:2a:96:5e:36:60:af:45:a5:2e:2e:50:59:e3:
                    e7:bc:7f:be:1e:be:cd:8f:a6:1b:41:31:31:f3:fa:
                    1c:72:d2:2b:dc:81:c6:30:25:19:7f:1e:12:48:31:
                    39:7d:14:82:82:98:69:32:7d:30:d7:58:02:6a:d6:
                    54:a6:9c:ae:fa:e6:b4:98:25:a6:be:84:c2:9f:4c:
                    fe:5a:a8:b0:0b:fe:65:84:4e:03:b8:b1:d1:d8:d8:
                    a3:78:bb:3a:ae:90:82:8a:fb:2b:20:cc:3d:d3:aa:
                    8e:39:49:f7:b5:35:aa:c2:a1:bf:07:7d:25:1e:ab:
                    ed:f4:4f:aa:63:e5:5b:75:e8:17:ee:b9:10:e2:8f:
                    28:f8:c1:26:b8:2f:d4:44:82:7b:50:a8:5a:ea:93:
                    5b:65:d1:27:20:57:52:60:90:fd:72:03:fd:3f:7c:
                    c5:2b:1c:e6:ff:43:40:fd:c7:63:2a:d6:5d:40:e3:
                    ff:e7
                Exponent: 65537 (0x10001)
        X509v3 extensions:
            X509v3 Subject Key Identifier: 
                92:0B:8A:6E:FF:13:4C:C7:48:21:32:31:EC:05:63:7B:B2:3D:1D:CD
            X509v3 Authority Key Identifier: 
                keyid:20:02:A1:59:1C:07:94:4A:AA:25:27:C9:49:60:BB:14:0F:83:12:08
                DirName:/O=Test Org/CN=Test Org Provisioning CA Root
                serial:01

            X509v3 Basic Constraints: 
                CA:TRUE, pathlen:0
    Signature Algorithm: sha256WithRSAEncryption
         b7:dd:09:3b:9a:f6:8a:7e:56:c1:d5:ea:58:77:9d:fd:80:f8:
         36:4f:5e:19:4d:9d:38:72:12:a4:ce:cb:83:94:a2:f0:bc:06:
         9a:42:2d:47:de:1d:11:d9:0b:37:93:78:f6:df:eb:21:a9:f3:
         1d:05:95:da:53:e7:8c:e0:72:ef:fc:09:db:c4:27:7b:13:13:
         40:08:97:8b:f8:41:90:ac:ee:48:a6:d9:16:a5:20:c9:78:cc:
         a8:f2:2e:9e:d2:88:9c:b8:56:f5:b9:73:56:1e:e4:af:cb:1c:
         1d:f7:d0:8f:82:85:c7:72:be:46:fc:ed:8f:45:34:5a:ad:08:
         87:9e:6b:0d:61:6f:e2:bd:80:6c:3b:ab:df:00:5f:85:ce:06:
         ce:1c:b9:f2:0e:57:58:ac:36:8c:64:ef:65:27:9f:f6:65:a1:
         29:0f:b1:c5:f2:d5:d9:9b:35:4b:fa:47:ce:a3:4f:65:08:00:
         84:b7:57:58:54:f0:4d:4b:3f:ce:f9:aa:de:41:f6:13:79:7c:
         9f:f3:09:47:23:44:61:89:4a:67:ca:01:82:60:15:4e:eb:3d:
         d0:8e:de:9f:24:9a:cc:56:fe:ac:78:e5:f1:1d:ff:8a:f2:c3:
         d8:e7:e4:4a:12:51:a1:a1:1d:27:0d:94:c6:7e:0a:2c:6d:d2:
         4a:06:24:18
-----BEGIN CERTIFICATE-----
MIIDizCCAnOgAwIBAgIBBTANBgkqhkiG9w0BAQsFADA7MREwDwYDVQQKDAhUZXN0
IE9yZzEmMCQGA1UEAwwdVGVzdCBPcmcgUHJvdmlzaW9uaW5nIENBIFJvb3QwIBcN
NzAwMTAxMDAwMDAwWhgPOTk5OTEyMzEyMzU5NTlaMDoxETAPBgNVBAoMCFRlc3Qg
T3JnMSUwIwYDVQQDDBxUZXN0IE9yZyBQcm92aXNpb25pbmcgQ0EgV2ViMIIBIjAN
BgkqhkiG9w0BAQEFAAOCAQ8AMIIBCgKCAQEAqjvpgzEceG0mFMNSTHSeKquSZyap
+mkr7x3Y2UlhBMWCdWm9FjlLq9RZIC5cgFr98F+r6GH6NJIfVkIGYufwc19QY8+k
whX/sLhayiqWXjZgr0WlLi5QWePnvH++Hr7Nj6YbQTEx8/occtIr3IHGMCUZfx4S
SDE5fRSCgphpMn0w11gCatZUppyu+ua0mCWmvoTCn0z+WqiwC/5lhE4DuLHR2Nij
eLs6rpCCivsrIMw906qOOUn3tTWqwqG/B30lHqvt9E+qY+VbdegX7rkQ4o8o+MEm
uC/URIJ7UKha6pNbZdEnIFdSYJD9cgP9P3zFKxzm/0NA/cdjKtZdQOP/5wIDAQAB
o4GYMIGVMB0GA1UdDgQWBBSSC4pu/xNMx0ghMjHsBWN7sj0dzTBjBgNVHSMEXDBa
gBQgAqFZHAeUSqolJ8lJYLsUD4MSCKE/pD0wOzERMA8GA1UECgwIVGVzdCBPcmcx
JjAkBgNVBAMMHVRlc3QgT3JnIFByb3Zpc2lvbmluZyBDQSBSb290ggEBMA8GA1Ud
EwQIMAYBAf8CAQAwDQYJKoZIhvcNAQELBQADggEBALfdCTua9op+VsHV6lh3nf2A
+DZPXhlNnThyEqTOy4OUovC8BppCLUfeHRHZCzeTePbf6yGp8x0FldpT54zgcu/8
CdvEJ3sTE0AIl4v4QZCs7kim2RalIMl4zKjyLp7SiJy4VvW5c1Ye5K/LHB330I+C
hcdyvkb87Y9FNFqtCIeeaw1hb+K9gGw7q98AX4XOBs4cufIOV1isNoxk72Unn/Zl
oSkPscXy1dmbNUv6R86jT2UIAIS3V1hU8E1LP875qt5B9hN5fJ/zCUcjRGGJSmfK
AYJgFU7rPdCO3p8kmsxW/qx45fEd/4ryw9jn5EoSUaGhHScNlMZ+Cixt0koGJBg=
-----END CERTIFICATE-----
-----BEGIN X509 CRL-----
MIIBfzBpMA0GCSqGSIb3DQEBCwUAMDoxETAPBgNVBAoMCFRlc3QgT3JnMSUwIwYD
VQQDDBxUZXN0IE9yZyBQcm92aXNpb25pbmcgQ0EgV2ViFw0yMTA2MjgxMjI0NDVa
Fw0zNTAzMDcxMjI0NDVaMA0GCSqGSIb3DQEBCwUAA4IBAQCLvlpNTAc4xP9ID7iY
x6iQyhBU810AwFqxxP4YxBBi0j00XAEl3Zxua1vAuTQ4aDVc7sy/JERk5VUks/Uq
ijEEEd4hZ9155pnm4ElT7zuWYwcoh6tNpXttPEYJxFAy9x9g1zsIBqRmyDlkSLHy
NbcwUJszsuOKTRhyMnOH7JHMqeNxCjqGxEWfsErVAToWdr2yRyd3g5NgVTsMIam5
N1T4bmre228cLluqxF+2Uc1akcCZa3Qu3uZgNUyetTiyvDcZYdnfUAvXZNpp7iK2
X8D39hPhv9CSDkW5y2o2YN39ngkKT26sIAdwGt/bpt9ZFGJYuJ+Mc10st388j8n9
Hcf2
-----END X509 CRL-----
