Certificate:
    Data:
        Version: 3 (0x2)
        Serial Number: 2 (0x2)
    Signature Algorithm: sha256WithRSAEncryption
        Issuer: O=Test Org, CN=Test Org Provisioning CA B
        Validity
            Not Before: Jan  1 00:00:00 1970 GMT
            Not After : Dec 31 23:59:59 9999 GMT
        Subject: O=Test Org, CN=Test Org Provisioning CA B
        Subject Public Key Info:
            Public Key Algorithm: rsaEncryption
                Public-Key: (2048 bit)
                Modulus:
                    00:bf:f2:03:83:92:ca:c3:af:16:52:9a:eb:90:49:
                    9c:a6:0e:98:29:a8:3d:04:db:72:3d:7c:52:8f:c7:
                    03:3b:19:98:8e:2c:69:31:c2:c1:c9:8c:ff:32:aa:
                    59:d9:80:48:d3:c0:5b:b6:82:c6:e9:51:d2:bf:a7:
                    ee:dd:ce:05:0c:95:e9:f2:49:d8:62:f4:3e:da:d4:
                    b0:66:7a:f2:c7:fa:9f:80:3b:a9:6e:f9:b8:7e:ab:
                    43:9b:67:b8:08:18:c4:2f:d5:9f:ac:ff:b7:a7:76:
                    70:fd:19:db:0b:67:25:87:80:bb:a2:f8:f1:4b:c0:
                    cc:bc:4c:c3:71:09:d7:4f:0d:7d:2e:f2:74:3b:7e:
                    a5:c6:15:67:75:d5:c3:a7:ca:9a:2e:d5:e2:df:20:
                    52:a9:4d:a8:1b:8a:b9:e6:7f:b3:49:fb:69:85:e1:
                    b1:cc:d7:c6:67:02:c7:5b:3d:60:a9:e1:83:c2:dd:
                    64:5b:14:44:0b:23:e3:8f:1c:ba:00:a1:d5:72:ac:
                    4b:80:df:0b:08:21:83:88:de:47:d1:e1:4a:b3:f6:
                    c4:36:e9:ef:0e:00:d9:e2:74:86:26:9b:3d:fa:58:
                    6f:ab:48:54:97:87:6b:72:b6:00:bb:33:01:92:74:
                    65:79:1e:31:11:5b:42:fb:ae:08:90:ad:83:85:00:
                    34:47
                Exponent: 65537 (0x10001)
        X509v3 extensions:
            X509v3 Subject Key Identifier: 
                AF:10:A2:D7:08:4D:75:E2:5C:12:32:DD:A0:9D:CA:1D:A9:7C:C0:13
            X509v3 Authority Key Identifier: 
                keyid:AF:10:A2:D7:08:4D:75:E2:5C:12:32:DD:A0:9D:CA:1D:A9:7C:C0:13
                DirName:/O=Test Org/CN=Test Org Provisioning CA B
                serial:02

            X509v3 Basic Constraints: 
                CA:TRUE
    Signature Algorithm: sha256WithRSAEncryption
         a8:c6:1e:51:ac:a6:eb:12:60:df:a3:e7:56:f9:46:ed:d7:0a:
         98:45:f0:57:22:50:94:8f:1e:ec:f9:39:74:ba:3a:37:26:16:
         ce:30:30:71:16:77:17:23:bb:f1:6b:fd:87:12:d6:08:6a:bb:
         d7:4d:9d:1d:50:15:69:cb:9e:e1:b5:6b:f9:a8:d4:a7:de:38:
         24:6b:b4:0a:89:46:2b:ce:92:28:99:e7:e6:b5:7a:41:0b:d3:
         b2:4d:fc:d0:d2:ac:e6:a1:5d:82:da:16:6a:62:8f:5a:37:9f:
         1b:fc:d5:b6:79:d2:95:f9:d4:f6:e0:c8:27:df:96:77:bb:2b:
         a8:d9:87:22:e3:56:5e:5a:5c:34:91:4a:c1:b2:19:a4:1e:05:
         a8:18:62:2b:6c:8d:ea:ba:54:e2:e7:38:9d:98:21:7d:e7:0d:
         4d:f5:54:df:09:cf:a5:78:99:94:2d:bf:bc:37:0a:45:ab:74:
         e9:f8:3c:c3:70:30:c0:c2:6f:b3:5d:94:7c:70:0c:ca:af:a6:
         41:b0:1b:ca:3c:4c:cd:6c:28:a1:42:fd:f3:44:82:cb:6e:ac:
         72:08:53:10:d5:31:0b:1b:56:d4:fb:eb:26:82:35:60:3c:ac:
         f6:99:e2:70:77:27:c4:3a:fb:9c:70:d6:d1:8b:27:39:84:fc:
         96:99:0b:9c
-----BEGIN CERTIFICATE-----
MIIDgjCCAmqgAwIBAgIBAjANBgkqhkiG9w0BAQsFADA4MREwDwYDVQQKDAhUZXN0
IE9yZzEjMCEGA1UEAwwaVGVzdCBPcmcgUHJvdmlzaW9uaW5nIENBIEIwIhgPMTk3
MDAxMDEwMDAwMDBaGA85OTk5MTIzMTIzNTk1OVowODERMA8GA1UECgwIVGVzdCBP
cmcxIzAhBgNVBAMMGlRlc3QgT3JnIFByb3Zpc2lvbmluZyBDQSBCMIIBIjANBgkq
hkiG9w0BAQEFAAOCAQ8AMIIBCgKCAQEAv/IDg5LKw68WUprrkEmcpg6YKag9BNty
PXxSj8cDOxmYjixpMcLByYz/MqpZ2YBI08BbtoLG6VHSv6fu3c4FDJXp8knYYvQ+
2tSwZnryx/qfgDupbvm4fqtDm2e4CBjEL9WfrP+3p3Zw/RnbC2clh4C7ovjxS8DM
vEzDcQnXTw19LvJ0O36lxhVnddXDp8qaLtXi3yBSqU2oG4q55n+zSftpheGxzNfG
ZwLHWz1gqeGDwt1kWxRECyPjjxy6AKHVcqxLgN8LCCGDiN5H0eFKs/bENunvDgDZ
4nSGJps9+lhvq0hUl4drcrYAuzMBknRleR4xEVtC+64IkK2DhQA0RwIDAQABo4GS
MIGPMB0GA1UdDgQWBBSvEKLXCE114lwSMt2gncodqXzAEzBgBgNVHSMEWTBXgBSv
EKLXCE114lwSMt2gncodqXzAE6E8pDowODERMA8GA1UECgwIVGVzdCBPcmcxIzAh
BgNVBAMMGlRlc3QgT3JnIFByb3Zpc2lvbmluZyBDQSBCggECMAwGA1UdEwQFMAMB
Af8wDQYJKoZIhvcNAQELBQADggEBAKjGHlGspusSYN+j51b5Ru3XCphF8FciUJSP
Huz5OXS6OjcmFs4wMHEWdxcju/Fr/YcS1ghqu9dNnR1QFWnLnuG1a/mo1KfeOCRr
tAqJRivOkiiZ5+a1ekEL07JN/NDSrOahXYLaFmpij1o3nxv81bZ50pX51PbgyCff
lne7K6jZhyLjVl5aXDSRSsGyGaQeBagYYitsjeq6VOLnOJ2YIX3nDU31VN8Jz6V4
mZQtv7w3CkWrdOn4PMNwMMDCb7NdlHxwDMqvpkGwG8o8TM1sKKFC/fNEgsturHII
UxDVMQsbVtT76yaCNWA8rPaZ4nB3J8Q6+5xw1tGLJzmE/JaZC5w=
-----END CERTIFICATE-----
