Certificate:
    Data:
        Version: 3 (0x2)
        Serial Number: 2 (0x2)
    Signature Algorithm: sha256WithRSAEncryption
        Issuer: O=Test Org, CN=Test Org Provisioning CA Development
        Validity
            Not Before: Jan  1 00:00:00 1970 GMT
            Not After : Dec 31 23:59:59 9999 GMT
        Subject: O=Test Org, CN=Test Org Autobuilder-1
        Subject Public Key Info:
            Public Key Algorithm: rsaEncryption
                Public-Key: (2048 bit)
                Modulus:
                    00:c0:7c:57:e7:9e:20:18:84:a6:6f:3a:2f:5e:00:
                    e0:2c:35:6d:58:64:9d:2d:5c:61:cf:bd:67:72:ac:
                    72:7a:10:7e:19:77:41:80:76:9a:42:c4:ed:5f:92:
                    23:b2:fa:e5:69:de:04:29:3b:d0:03:b6:9d:e5:f3:
                    eb:d9:23:3d:b4:89:a1:d4:47:27:00:20:71:87:1b:
                    c0:e7:47:ae:e7:bb:75:e7:03:f2:fc:24:f9:1c:ef:
                    0b:94:43:ef:ac:48:ee:db:04:44:4d:e0:a2:eb:56:
                    7d:49:67:ec:4d:89:d6:7d:4e:7d:cc:7f:a1:a5:97:
                    83:87:4d:42:f1:77:ba:68:25:79:99:21:a7:90:bc:
                    2e:67:ab:9e:4f:76:b4:fc:67:ab:92:50:9b:6f:5a:
                    04:d2:7e:07:ca:9d:e5:7e:03:1f:e4:b9:62:d7:e4:
                    3d:6e:bd:36:5d:f4:d3:a8:5d:91:36:70:71:fe:df:
                    e2:1f:cb:55:fc:b8:80:ed:4f:22:46:f7:5e:09:52:
                    a5:0a:c7:9f:1b:3d:e6:fb:7b:d9:2d:f9:51:f9:3c:
                    fe:1c:6f:34:09:9f:ed:bf:7b:f8:a5:dd:64:1e:29:
                    7d:60:1c:e5:f0:37:94:6e:69:ce:b4:a4:3f:4a:67:
                    3a:cf:00:fa:9f:06:23:2d:f7:67:10:e6:b7:02:c3:
                    fb:b5
                Exponent: 65537 (0x10001)
        X509v3 extensions:
            X509v3 Subject Key Identifier: 
                3C:83:13:1F:F8:3C:CF:23:89:F9:0D:4C:94:B2:67:FD:D9:07:D5:5F
            X509v3 Authority Key Identifier: 
                keyid:2B:DA:30:7F:54:40:3B:C0:8D:D3:50:F9:21:A4:3D:BA:01:EB:41:2B
                DirName:/O=Test Org/CN=Test Org Provisioning CA Development
                serial:01

            X509v3 Basic Constraints: 
                CA:FALSE
    Signature Algorithm: sha256WithRSAEncryption
         b7:fa:8e:7e:87:dc:50:ca:b5:d1:f1:dd:ae:3f:33:c2:b6:77:
         8d:95:c4:88:be:ab:b4:f4:93:b3:e6:a0:47:fc:8f:bb:cd:1f:
         34:bf:de:3b:e9:f8:04:2e:68:91:94:bd:63:3e:41:00:35:b6:
         5c:7b:34:b3:b1:24:d1:17:62:2c:fe:d8:7d:73:3d:41:5f:18:
         c6:5e:af:0a:33:12:3f:89:99:73:33:10:5c:95:83:5b:81:0a:
         48:69:c9:9b:88:0b:56:5e:56:89:3c:77:38:13:5a:8d:61:36:
         88:8d:27:eb:0b:77:30:9d:88:ee:a3:f7:33:c1:3d:61:81:c0:
         a8:fe:47:5c:18:71:c8:51:3b:05:59:15:77:44:97:fb:50:05:
         0a:5f:34:ef:c0:ba:4a:b9:00:03:7b:da:a2:ab:1c:a6:60:d5:
         aa:b9:0b:5c:f5:80:2a:f7:d6:9b:87:dc:b3:57:7a:2a:9f:af:
         ed:79:77:ac:9a:e2:c7:04:2e:7a:9f:ef:bd:7f:5f:e4:93:01:
         6c:89:a4:59:7e:a5:0b:c0:e6:6e:f4:b9:a4:43:79:8c:68:9e:
         00:68:5f:30:3a:d0:38:26:a2:64:34:dc:16:6f:c4:b4:a6:52:
         82:24:ad:39:97:4b:a5:c6:95:27:6e:12:e0:d3:44:a1:41:9f:
         5e:44:01:5e
-----BEGIN CERTIFICATE-----
MIIDjzCCAnegAwIBAgIBAjANBgkqhkiG9w0BAQsFADBCMREwDwYDVQQKDAhUZXN0
IE9yZzEtMCsGA1UEAwwkVGVzdCBPcmcgUHJvdmlzaW9uaW5nIENBIERldmVsb3Bt
ZW50MCIYDzE5NzAwMTAxMDAwMDAwWhgPOTk5OTEyMzEyMzU5NTlaMDQxETAPBgNV
BAoMCFRlc3QgT3JnMR8wHQYDVQQDDBZUZXN0IE9yZyBBdXRvYnVpbGRlci0xMIIB
IjANBgkqhkiG9w0BAQEFAAOCAQ8AMIIBCgKCAQEAwHxX554gGISmbzovXgDgLDVt
WGSdLVxhz71ncqxyehB+GXdBgHaaQsTtX5Ijsvrlad4EKTvQA7ad5fPr2SM9tImh
1EcnACBxhxvA50eu57t15wPy/CT5HO8LlEPvrEju2wRETeCi61Z9SWfsTYnWfU59
zH+hpZeDh01C8Xe6aCV5mSGnkLwuZ6ueT3a0/GerklCbb1oE0n4Hyp3lfgMf5Lli
1+Q9br02XfTTqF2RNnBx/t/iH8tV/LiA7U8iRvdeCVKlCsefGz3m+3vZLflR+Tz+
HG80CZ/tv3v4pd1kHil9YBzl8DeUbmnOtKQ/Smc6zwD6nwYjLfdnEOa3AsP7tQID
AQABo4GZMIGWMB0GA1UdDgQWBBQ8gxMf+DzPI4n5DUyUsmf92QfVXzBqBgNVHSME
YzBhgBQr2jB/VEA7wI3TUPkhpD26AetBK6FGpEQwQjERMA8GA1UECgwIVGVzdCBP
cmcxLTArBgNVBAMMJFRlc3QgT3JnIFByb3Zpc2lvbmluZyBDQSBEZXZlbG9wbWVu
dIIBATAJBgNVHRMEAjAAMA0GCSqGSIb3DQEBCwUAA4IBAQC3+o5+h9xQyrXR8d2u
PzPCtneNlcSIvqu09JOz5qBH/I+7zR80v9476fgELmiRlL1jPkEANbZcezSzsSTR
F2Is/th9cz1BXxjGXq8KMxI/iZlzMxBclYNbgQpIacmbiAtWXlaJPHc4E1qNYTaI
jSfrC3cwnYjuo/czwT1hgcCo/kdcGHHIUTsFWRV3RJf7UAUKXzTvwLpKuQADe9qi
qxymYNWquQtc9YAq99abh9yzV3oqn6/teXesmuLHBC56n++9f1/kkwFsiaRZfqUL
wOZu9LmkQ3mMaJ4AaF8wOtA4JqJkNNwWb8S0plKCJK05l0ulxpUnbhLg00ShQZ9e
RAFe
-----END CERTIFICATE-----
