Certificate:
    Data:
        Version: 3 (0x2)
        Serial Number: 2 (0x2)
    Signature Algorithm: sha256WithRSAEncryption
        Issuer: O=Test Org, CN=Test Org Provisioning CA Development
        Validity
            Not Before: Jan  1 00:00:00 1970 GMT
            Not After : Dec 31 23:59:59 9999 GMT
        Subject: O=Test Org, CN=Test Org Autobuilder-2
        Subject Public Key Info:
            Public Key Algorithm: rsaEncryption
                Public-Key: (2048 bit)
                Modulus:
                    00:a9:6d:2e:4e:0d:d6:dc:9f:b7:8d:d3:08:ac:f6:
                    2c:5a:5d:1d:87:22:d0:36:50:e1:ef:d4:91:1c:db:
                    c8:fe:69:c3:d9:65:ea:e8:f5:d8:4e:b1:b4:ea:c3:
                    46:a2:2c:13:d5:60:70:44:56:b4:c6:49:e9:61:59:
                    cd:c9:d4:3c:74:93:be:f1:98:88:ec:6a:ae:85:fb:
                    88:7e:b3:17:4e:5b:60:63:77:31:84:78:fc:d8:6e:
                    b4:50:9c:7c:cd:5d:d8:ec:52:ae:48:42:9e:3d:1f:
                    2b:e7:7c:b6:93:7b:88:9f:65:17:b1:be:5f:75:2d:
                    53:34:d3:31:94:07:f3:90:30:60:c5:32:be:4f:47:
                    0d:4b:57:b3:5f:9b:48:bb:4d:22:dd:37:5f:bb:a9:
                    26:71:37:5e:f7:2f:5e:40:e5:d8:06:32:4c:4a:dd:
                    ad:ab:cc:30:1a:9b:6b:46:26:d6:69:77:7e:a3:86:
                    ff:bb:fd:c6:a8:1c:fb:79:90:a4:c9:10:b4:60:52:
                    5a:cd:2d:48:d4:6c:58:f6:c2:c0:19:ac:7b:60:4c:
                    a9:b5:54:9d:78:84:7d:77:00:7d:bd:c0:00:55:dc:
                    96:94:97:66:b1:14:d4:6f:9f:28:f7:fb:1b:68:d9:
                    5a:4a:3d:31:77:d0:63:1c:1b:59:70:8e:ec:1f:fc:
                    a1:43
                Exponent: 65537 (0x10001)
        X509v3 extensions:
            X509v3 Subject Key Identifier: 
                64:C0:04:22:9B:07:5A:6E:87:CC:37:86:91:F1:88:B6:AB:A2:E5:EA
            X509v3 Authority Key Identifier: 
                keyid:80:5A:06:66:1D:27:94:AC:D4:4A:FB:3E:FE:E4:FC:9C:BC:75:55:FE
                DirName:/O=Test Org/CN=Test Org Provisioning CA Root
                serial:03

            X509v3 Basic Constraints: 
                CA:FALSE
    Signature Algorithm: sha256WithRSAEncryption
         46:6b:82:f0:37:22:1e:eb:08:54:6d:92:e9:dd:c6:59:89:72:
         30:06:0d:ab:ed:37:fa:9a:85:ec:98:dc:46:74:b7:f1:d0:8d:
         da:3b:ce:f4:b9:c9:6b:0d:27:a7:10:51:e4:42:bf:95:e5:d1:
         41:4e:0f:9e:38:b7:eb:96:d5:15:09:91:55:a5:be:e0:87:bb:
         fd:4a:cb:cb:6c:8b:69:68:2b:58:27:be:5a:9b:b3:85:58:c4:
         1b:23:ee:9a:a9:cf:b7:48:8c:4a:97:3e:76:aa:94:50:c6:0f:
         76:cf:85:db:3e:f0:db:1d:1d:11:ff:16:52:1c:4f:e8:81:ad:
         11:91:42:cb:84:c2:0a:63:8a:42:c9:ee:e8:fb:e3:c3:b1:c1:
         28:36:f7:f9:1b:bf:a3:6a:7e:39:83:61:29:95:7f:cf:d3:ca:
         c8:68:00:c8:86:b1:93:32:5c:43:d6:f2:d4:63:2d:76:da:e3:
         88:d7:e1:4f:d9:0f:73:9d:b2:87:85:6a:4b:96:42:8f:90:2e:
         b3:45:f9:29:a7:f5:95:f5:a5:22:de:28:a1:42:cd:61:64:a8:
         db:0e:e8:2c:62:cb:9d:fc:67:81:06:b0:44:96:e6:90:cb:00:
         18:ca:4e:71:2b:73:c2:00:79:bb:29:d6:dc:27:2c:45:0d:2c:
         3e:12:a8:18
-----BEGIN CERTIFICATE-----
MIIDiDCCAnCgAwIBAgIBAjANBgkqhkiG9w0BAQsFADBCMREwDwYDVQQKDAhUZXN0
IE9yZzEtMCsGA1UEAwwkVGVzdCBPcmcgUHJvdmlzaW9uaW5nIENBIERldmVsb3Bt
ZW50MCIYDzE5NzAwMTAxMDAwMDAwWhgPOTk5OTEyMzEyMzU5NTlaMDQxETAPBgNV
BAoMCFRlc3QgT3JnMR8wHQYDVQQDDBZUZXN0IE9yZyBBdXRvYnVpbGRlci0yMIIB
IjANBgkqhkiG9w0BAQEFAAOCAQ8AMIIBCgKCAQEAqW0uTg3W3J+3jdMIrPYsWl0d
hyLQNlDh79SRHNvI/mnD2WXq6PXYTrG06sNGoiwT1WBwRFa0xknpYVnNydQ8dJO+
8ZiI7GquhfuIfrMXTltgY3cxhHj82G60UJx8zV3Y7FKuSEKePR8r53y2k3uIn2UX
sb5fdS1TNNMxlAfzkDBgxTK+T0cNS1ezX5tIu00i3Tdfu6kmcTde9y9eQOXYBjJM
St2tq8wwGptrRibWaXd+o4b/u/3GqBz7eZCkyRC0YFJazS1I1GxY9sLAGax7YEyp
tVSdeIR9dwB9vcAAVdyWlJdmsRTUb58o9/sbaNlaSj0xd9BjHBtZcI7sH/yhQwID
AQABo4GSMIGPMB0GA1UdDgQWBBRkwAQimwdabofMN4aR8Yi2q6Ll6jBjBgNVHSME
XDBagBSAWgZmHSeUrNRK+z7+5PycvHVV/qE/pD0wOzERMA8GA1UECgwIVGVzdCBP
cmcxJjAkBgNVBAMMHVRlc3QgT3JnIFByb3Zpc2lvbmluZyBDQSBSb290ggEDMAkG
A1UdEwQCMAAwDQYJKoZIhvcNAQELBQADggEBAEZrgvA3Ih7rCFRtkundxlmJcjAG
DavtN/qaheyY3EZ0t/HQjdo7zvS5yWsNJ6cQUeRCv5Xl0UFOD544t+uW1RUJkVWl
vuCHu/1Ky8tsi2loK1gnvlqbs4VYxBsj7pqpz7dIjEqXPnaqlFDGD3bPhds+8Nsd
HRH/FlIcT+iBrRGRQsuEwgpjikLJ7uj748OxwSg29/kbv6NqfjmDYSmVf8/Tysho
AMiGsZMyXEPW8tRjLXba44jX4U/ZD3OdsoeFakuWQo+QLrNF+Smn9ZX1pSLeKKFC
zWFkqNsO6Cxiy538Z4EGsESW5pDLABjKTnErc8IAebsp1twnLEUNLD4SqBg=
-----END CERTIFICATE-----
