Certificate:
    Data:
        Version: 3 (0x2)
        Serial Number: 1 (0x1)
    Signature Algorithm: sha256WithRSAEncryption
        Issuer: O=Test Org, CN=Test Org Provisioning CA Development
        Validity
            Not Before: Jan  1 00:00:00 1970 GMT
            Not After : Dec 31 23:59:59 9999 GMT
        Subject: O=Test Org, CN=Test Org Autobuilder-1
        Subject Public Key Info:
            Public Key Algorithm: rsaEncryption
                Public-Key: (2048 bit)
                Modulus:
                    00:d5:5b:cb:41:28:95:1d:36:1e:92:3c:c9:b4:b7:
                    2d:6a:1b:a2:55:31:a9:f3:0b:2d:0b:4f:ce:29:9f:
                    66:74:6e:4f:9e:bb:65:5a:18:99:66:39:07:14:96:
                    2f:30:a7:39:85:a1:b1:6f:a6:23:41:ac:19:2b:28:
                    ba:b2:51:b0:df:f8:16:5d:45:f5:42:d2:dc:3a:7d:
                    75:84:b4:36:d3:cb:4b:29:89:cd:00:d5:07:9b:aa:
                    3f:aa:3b:e0:07:5f:15:d1:c0:b9:3d:2b:bb:8a:34:
                    7e:e5:39:ad:a0:eb:a6:a7:d5:ed:c4:9b:6c:cb:4e:
                    2c:e7:dc:fe:6d:b2:51:b4:90:83:51:49:fc:3b:78:
                    96:12:a1:df:e7:1d:4e:ca:94:50:a1:6b:3e:24:0c:
                    52:c4:1f:1b:ca:ea:19:a3:f6:83:62:d8:7f:7e:67:
                    94:29:58:e5:05:33:6f:dd:ff:70:3d:53:86:06:8d:
                    9d:31:e0:56:aa:eb:5f:0a:8c:cd:f0:19:20:5d:07:
                    09:fe:9a:90:53:c5:a9:f6:a4:9b:04:df:80:1c:eb:
                    1d:fe:62:98:01:aa:ac:02:cb:33:d9:70:ec:36:4b:
                    a6:20:b6:e7:68:50:ff:5b:24:18:d3:dd:df:bb:05:
                    c6:da:da:05:42:4c:6d:98:58:18:1c:f8:f7:13:f6:
                    1b:35
                Exponent: 65537 (0x10001)
        X509v3 extensions:
            X509v3 Subject Key Identifier: 
                4C:57:1E:6C:10:6B:6A:C5:D9:91:7C:BD:99:4B:F2:26:F9:86:A5:8A
            X509v3 Authority Key Identifier: 
                keyid:80:5A:06:66:1D:27:94:AC:D4:4A:FB:3E:FE:E4:FC:9C:BC:75:55:FE
                DirName:/O=Test Org/CN=Test Org Provisioning CA Root
                serial:03

            X509v3 Basic Constraints: 
                CA:FALSE
    Signature Algorithm: sha256WithRSAEncryption
         a9:08:09:4a:b3:5f:7e:1b:14:06:12:f0:0a:31:11:7b:29:24:
         4b:fa:0f:40:78:f1:c6:d4:b7:d8:b5:8c:ca:1c:11:fb:48:5e:
         eb:53:05:00:0f:21:47:9b:05:1a:36:ec:9f:6a:56:03:5c:72:
         df:3d:5c:a0:ac:8a:1c:26:64:cf:90:83:52:c7:5c:2c:88:72:
         ac:65:97:97:22:0c:da:cb:b3:4f:85:6d:08:e3:fc:07:9c:e4:
         fe:63:3f:80:11:0b:39:bf:bb:df:d6:d3:e9:db:bf:65:28:1b:
         bb:e5:63:1f:09:2e:56:30:0c:0a:b5:d1:91:c5:7d:08:19:ff:
         19:61:37:b3:33:69:6c:27:23:ad:13:73:57:62:c5:d0:46:05:
         79:7f:4a:72:f1:6f:d5:2e:51:c2:fd:ec:02:5c:32:f0:28:12:
         e1:fc:19:f8:92:52:4d:d6:78:c0:11:49:a5:65:36:2c:15:e7:
         e6:7b:70:cb:b9:d7:26:19:f9:84:58:31:7e:0c:aa:5c:8b:34:
         a9:4a:b8:6c:2f:38:d1:fc:aa:37:e8:61:40:6a:c2:dd:f2:0a:
         22:e7:b1:d6:13:d2:25:b1:6a:a8:dc:cb:99:cc:70:48:c7:cb:
         34:dc:7b:bd:6d:a4:5d:37:07:f3:77:8c:5f:ba:6a:29:60:f1:
         f3:f1:dc:c2
-----BEGIN CERTIFICATE-----
MIIDiDCCAnCgAwIBAgIBATANBgkqhkiG9w0BAQsFADBCMREwDwYDVQQKDAhUZXN0
IE9yZzEtMCsGA1UEAwwkVGVzdCBPcmcgUHJvdmlzaW9uaW5nIENBIERldmVsb3Bt
ZW50MCIYDzE5NzAwMTAxMDAwMDAwWhgPOTk5OTEyMzEyMzU5NTlaMDQxETAPBgNV
BAoMCFRlc3QgT3JnMR8wHQYDVQQDDBZUZXN0IE9yZyBBdXRvYnVpbGRlci0xMIIB
IjANBgkqhkiG9w0BAQEFAAOCAQ8AMIIBCgKCAQEA1VvLQSiVHTYekjzJtLctahui
VTGp8wstC0/OKZ9mdG5PnrtlWhiZZjkHFJYvMKc5haGxb6YjQawZKyi6slGw3/gW
XUX1QtLcOn11hLQ208tLKYnNANUHm6o/qjvgB18V0cC5PSu7ijR+5TmtoOump9Xt
xJtsy04s59z+bbJRtJCDUUn8O3iWEqHf5x1OypRQoWs+JAxSxB8byuoZo/aDYth/
fmeUKVjlBTNv3f9wPVOGBo2dMeBWqutfCozN8BkgXQcJ/pqQU8Wp9qSbBN+AHOsd
/mKYAaqsAssz2XDsNkumILbnaFD/WyQY093fuwXG2toFQkxtmFgYHPj3E/YbNQID
AQABo4GSMIGPMB0GA1UdDgQWBBRMVx5sEGtqxdmRfL2ZS/Im+YalijBjBgNVHSME
XDBagBSAWgZmHSeUrNRK+z7+5PycvHVV/qE/pD0wOzERMA8GA1UECgwIVGVzdCBP
cmcxJjAkBgNVBAMMHVRlc3QgT3JnIFByb3Zpc2lvbmluZyBDQSBSb290ggEDMAkG
A1UdEwQCMAAwDQYJKoZIhvcNAQELBQADggEBAKkICUqzX34bFAYS8AoxEXspJEv6
D0B48cbUt9i1jMocEftIXutTBQAPIUebBRo27J9qVgNcct89XKCsihwmZM+Qg1LH
XCyIcqxll5ciDNrLs0+FbQjj/Aec5P5jP4ARCzm/u9/W0+nbv2UoG7vlYx8JLlYw
DAq10ZHFfQgZ/xlhN7MzaWwnI60Tc1dixdBGBXl/SnLxb9UuUcL97AJcMvAoEuH8
GfiSUk3WeMARSaVlNiwV5+Z7cMu51yYZ+YRYMX4MqlyLNKlKuGwvONH8qjfoYUBq
wt3yCiLnsdYT0iWxaqjcy5nMcEjHyzTce71tpF03B/N3jF+6ailg8fPx3MI=
-----END CERTIFICATE-----
