Certificate:
    Data:
        Version: 3 (0x2)
        Serial Number: 3 (0x3)
    Signature Algorithm: sha256WithRSAEncryption
        Issuer: O=Test Org, CN=Test Org Provisioning CA Development
        Validity
            Not Before: Jan  1 00:00:00 1970 GMT
            Not After : Dec 31 23:59:59 9999 GMT
        Subject: O=Test Org, CN=Test Org Autobuilder-2
        Subject Public Key Info:
            Public Key Algorithm: rsaEncryption
                Public-Key: (2048 bit)
                Modulus:
                    00:a5:cf:2b:1f:32:45:c3:04:03:f7:98:0b:5f:ff:
                    9f:6b:82:59:00:65:e4:66:95:7f:9b:5b:11:10:79:
                    e9:14:c8:ce:02:01:d7:7f:b7:ea:81:45:70:fa:44:
                    7c:fe:56:46:c1:f9:d3:9d:5d:a6:09:b3:06:e2:25:
                    56:df:a5:62:ab:75:e5:6a:72:96:70:5d:fc:2e:99:
                    e9:c9:43:fa:bd:ab:8d:66:bb:81:89:48:12:76:2f:
                    7f:ef:76:42:a3:08:b1:a3:9d:23:2a:f5:83:da:f0:
                    01:6f:8a:05:2e:8b:35:d1:99:0b:11:9d:46:38:b0:
                    50:21:4f:15:a6:90:14:69:5a:b9:b1:6e:45:c9:e2:
                    f5:20:75:47:53:b0:f6:44:f8:b3:1a:3c:75:34:5e:
                    94:c6:1c:f5:28:25:25:9f:75:a7:f3:f9:24:29:b8:
                    df:3a:be:d6:c1:89:56:51:c9:17:4f:34:86:23:ca:
                    11:91:cd:55:da:d2:8d:6f:44:1d:f4:f2:f7:78:a2:
                    61:64:a2:de:17:2b:89:cc:67:54:0b:c7:37:9a:72:
                    d9:81:9f:d9:27:f3:ab:13:22:0a:bf:f4:95:04:0a:
                    69:4a:9a:1e:0f:7c:4f:21:f3:85:0a:64:bb:cc:65:
                    b5:3d:16:a4:48:aa:23:33:11:57:f6:11:1c:21:7d:
                    ec:6d
                Exponent: 65537 (0x10001)
        X509v3 extensions:
            X509v3 Subject Key Identifier: 
                52:27:CA:38:1B:76:42:4A:B6:02:05:77:15:47:C4:81:6A:26:66:26
            X509v3 Authority Key Identifier: 
                keyid:2B:DA:30:7F:54:40:3B:C0:8D:D3:50:F9:21:A4:3D:BA:01:EB:41:2B
                DirName:/O=Test Org/CN=Test Org Provisioning CA Development
                serial:01

            X509v3 Basic Constraints: 
                CA:FALSE
    Signature Algorithm: sha256WithRSAEncryption
         21:16:fb:d2:d4:76:04:98:40:16:95:5a:eb:3d:07:26:ac:1f:
         c2:c2:0a:d0:e7:81:c5:5b:d3:87:0b:97:a1:63:5d:cf:4e:c8:
         32:31:3a:c3:94:c9:4c:8c:1d:fe:9b:1d:98:1e:9f:8d:03:db:
         3c:2f:54:fa:f8:90:6c:1b:1a:a3:20:5c:14:38:0b:64:73:68:
         6a:68:e1:50:53:e1:ac:4c:d4:ea:cd:3e:d7:8c:95:0e:cf:ea:
         84:86:af:7d:ad:ef:67:0a:96:24:de:fe:f7:ac:f3:eb:96:3f:
         6d:24:63:bb:97:81:2c:7c:5d:e5:c6:5e:0f:33:f1:0c:f5:d0:
         b3:d0:63:de:79:ad:38:c8:de:ac:66:aa:bd:18:22:b9:c3:70:
         38:38:b5:50:94:29:1a:49:7c:14:43:ff:97:ef:b5:ed:98:da:
         51:9a:4f:65:57:5d:c4:74:22:72:3d:c3:9d:02:92:75:b8:75:
         8b:b3:a3:0d:bb:d9:f6:0e:91:63:93:96:ea:9f:6c:17:76:bc:
         c1:2f:6d:00:11:bb:4a:60:f0:e0:45:a7:c2:96:47:fe:dc:61:
         69:21:09:ab:9d:7d:be:59:80:37:b1:25:fc:1e:69:d9:87:a5:
         ee:c9:3d:d3:df:fe:c0:c3:f2:3f:b8:a1:de:c0:90:09:96:0f:
         be:5a:9d:26
-----BEGIN CERTIFICATE-----
MIIDjzCCAnegAwIBAgIBAzANBgkqhkiG9w0BAQsFADBCMREwDwYDVQQKDAhUZXN0
IE9yZzEtMCsGA1UEAwwkVGVzdCBPcmcgUHJvdmlzaW9uaW5nIENBIERldmVsb3Bt
ZW50MCIYDzE5NzAwMTAxMDAwMDAwWhgPOTk5OTEyMzEyMzU5NTlaMDQxETAPBgNV
BAoMCFRlc3QgT3JnMR8wHQYDVQQDDBZUZXN0IE9yZyBBdXRvYnVpbGRlci0yMIIB
IjANBgkqhkiG9w0BAQEFAAOCAQ8AMIIBCgKCAQEApc8rHzJFwwQD95gLX/+fa4JZ
AGXkZpV/m1sREHnpFMjOAgHXf7fqgUVw+kR8/lZGwfnTnV2mCbMG4iVW36Viq3Xl
anKWcF38LpnpyUP6vauNZruBiUgSdi9/73ZCowixo50jKvWD2vABb4oFLos10ZkL
EZ1GOLBQIU8VppAUaVq5sW5FyeL1IHVHU7D2RPizGjx1NF6Uxhz1KCUln3Wn8/kk
KbjfOr7WwYlWUckXTzSGI8oRkc1V2tKNb0Qd9PL3eKJhZKLeFyuJzGdUC8c3mnLZ
gZ/ZJ/OrEyIKv/SVBAppSpoeD3xPIfOFCmS7zGW1PRakSKojMxFX9hEcIX3sbQID
AQABo4GZMIGWMB0GA1UdDgQWBBRSJ8o4G3ZCSrYCBXcVR8SBaiZmJjBqBgNVHSME
YzBhgBQr2jB/VEA7wI3TUPkhpD26AetBK6FGpEQwQjERMA8GA1UECgwIVGVzdCBP
cmcxLTArBgNVBAMMJFRlc3QgT3JnIFByb3Zpc2lvbmluZyBDQSBEZXZlbG9wbWVu
dIIBATAJBgNVHRMEAjAAMA0GCSqGSIb3DQEBCwUAA4IBAQAhFvvS1HYEmEAWlVrr
PQcmrB/CwgrQ54HFW9OHC5ehY13PTsgyMTrDlMlMjB3+mx2YHp+NA9s8L1T6+JBs
GxqjIFwUOAtkc2hqaOFQU+GsTNTqzT7XjJUOz+qEhq99re9nCpYk3v73rPPrlj9t
JGO7l4EsfF3lxl4PM/EM9dCz0GPeea04yN6sZqq9GCK5w3A4OLVQlCkaSXwUQ/+X
77XtmNpRmk9lV13EdCJyPcOdApJ1uHWLs6MNu9n2DpFjk5bqn2wXdrzBL20AEbtK
YPDgRafClkf+3GFpIQmrnX2+WYA3sSX8HmnZh6XuyT3T3/7Aw/I/uKHewJAJlg++
Wp0m
-----END CERTIFICATE-----
