Certificate:
    Data:
        Version: 3 (0x2)
        Serial Number: 1 (0x1)
    Signature Algorithm: sha256WithRSAEncryption
        Issuer: O=Test Org, CN=Test Org Provisioning CA Development
        Validity
            Not Before: Jan  1 00:00:00 1970 GMT
            Not After : Dec 31 23:59:59 9999 GMT
        Subject: O=Test Org, CN=Test Org Provisioning CA Development
        Subject Public Key Info:
            Public Key Algorithm: rsaEncryption
                Public-Key: (2048 bit)
                Modulus:
                    00:be:69:34:3b:c6:5b:45:31:c9:2c:e2:cc:70:17:
                    c8:c4:94:a5:3a:70:64:d5:55:4d:73:d4:97:74:de:
                    59:ef:f5:ef:8a:f8:24:e8:ab:62:30:d6:f0:4f:8c:
                    6f:7f:dc:e8:2d:61:67:ac:4f:f3:e2:10:86:bd:31:
                    57:8e:5a:4d:e6:f6:7c:98:27:e8:84:77:56:d0:2c:
                    fc:e4:9d:12:87:a4:64:38:82:cc:ff:e2:f6:ee:f3:
                    1b:36:cd:3c:c3:49:80:43:40:03:c8:6c:a6:b0:92:
                    a3:a8:74:e5:92:6c:cb:a1:3b:04:a3:b3:37:a8:05:
                    c6:5a:ae:af:02:74:ea:a9:35:7c:66:11:17:b8:b2:
                    9f:e4:dd:5d:5e:84:72:6c:f6:69:94:29:64:1d:0d:
                    e3:b6:f5:57:9d:88:6f:be:15:cf:99:63:1b:15:60:
                    4d:0d:d6:f8:fe:6c:1f:0c:08:71:38:ff:53:11:ae:
                    ad:4f:12:c8:00:87:3f:9e:5b:26:6a:14:9d:a0:39:
                    1d:7a:a0:9b:ea:7c:6d:1b:db:45:26:73:50:e2:8f:
                    fe:c0:40:b1:10:d6:a0:28:c4:c9:8c:f3:2e:ea:eb:
                    59:82:27:e6:97:d8:12:12:b2:dd:15:81:b3:ac:53:
                    dc:ae:3c:ca:41:1a:2f:ca:7f:58:e9:90:4f:97:2a:
                    4b:49
                Exponent: 65537 (0x10001)
        X509v3 extensions:
            X509v3 Subject Key Identifier: 
                2B:DA:30:7F:54:40:3B:C0:8D:D3:50:F9:21:A4:3D:BA:01:EB:41:2B
            X509v3 Authority Key Identifier: 
                keyid:2B:DA:30:7F:54:40:3B:C0:8D:D3:50:F9:21:A4:3D:BA:01:EB:41:2B
                DirName:/O=Test Org/CN=Test Org Provisioning CA Development
                serial:01

            X509v3 Basic Constraints: 
                CA:TRUE
    Signature Algorithm: sha256WithRSAEncryption
         2c:9b:21:f9:69:4b:61:69:96:ec:48:f5:d3:60:24:6c:99:4f:
         89:30:f2:ec:33:53:79:c3:29:6b:ea:fd:8e:d9:27:f6:eb:3d:
         71:cd:13:4f:e6:40:07:7a:71:e9:f7:23:96:38:65:a0:a9:91:
         83:75:bc:57:d9:ad:d2:1f:57:79:0e:32:34:37:f1:e4:38:eb:
         5a:b4:ae:60:8d:40:44:ba:0b:e1:22:4e:fa:f0:3d:29:5d:66:
         0f:df:cd:16:9c:6c:02:b4:a5:02:43:b3:45:8e:70:cd:d3:a3:
         43:ff:92:ff:52:d0:c4:5d:d8:d3:6b:25:a1:07:ea:7f:5b:87:
         5e:02:89:d0:98:76:fb:8b:7d:3b:a9:b4:c9:da:31:78:85:e6:
         3d:0f:1b:73:b2:47:65:d0:3f:18:da:54:2a:62:3f:42:f7:f7:
         c2:b9:53:2d:97:c7:9c:04:92:c8:d6:dc:c6:2e:db:6b:e8:26:
         3a:b2:12:b4:b9:ba:74:54:ef:26:a2:6c:2f:1a:e5:72:73:5a:
         a3:3a:96:bc:08:fc:a6:da:7d:18:f6:48:c9:a9:bd:a9:00:69:
         1a:29:c3:b2:3f:3d:8f:e8:16:19:1c:92:f5:8d:b0:73:b5:04:
         cc:23:b2:cd:74:79:9a:e7:58:5c:d8:72:e8:51:1b:5f:7d:31:
         71:23:16:b7
-----BEGIN CERTIFICATE-----
MIIDoDCCAoigAwIBAgIBATANBgkqhkiG9w0BAQsFADBCMREwDwYDVQQKDAhUZXN0
IE9yZzEtMCsGA1UEAwwkVGVzdCBPcmcgUHJvdmlzaW9uaW5nIENBIERldmVsb3Bt
ZW50MCIYDzE5NzAwMTAxMDAwMDAwWhgPOTk5OTEyMzEyMzU5NTlaMEIxETAPBgNV
BAoMCFRlc3QgT3JnMS0wKwYDVQQDDCRUZXN0IE9yZyBQcm92aXNpb25pbmcgQ0Eg
RGV2ZWxvcG1lbnQwggEiMA0GCSqGSIb3DQEBAQUAA4IBDwAwggEKAoIBAQC+aTQ7
xltFMcks4sxwF8jElKU6cGTVVU1z1Jd03lnv9e+K+CToq2Iw1vBPjG9/3OgtYWes
T/PiEIa9MVeOWk3m9nyYJ+iEd1bQLPzknRKHpGQ4gsz/4vbu8xs2zTzDSYBDQAPI
bKawkqOodOWSbMuhOwSjszeoBcZarq8CdOqpNXxmERe4sp/k3V1ehHJs9mmUKWQd
DeO29VediG++Fc+ZYxsVYE0N1vj+bB8MCHE4/1MRrq1PEsgAhz+eWyZqFJ2gOR16
oJvqfG0b20Umc1Dij/7AQLEQ1qAoxMmM8y7q61mCJ+aX2BISst0VgbOsU9yuPMpB
Gi/Kf1jpkE+XKktJAgMBAAGjgZwwgZkwHQYDVR0OBBYEFCvaMH9UQDvAjdNQ+SGk
PboB60ErMGoGA1UdIwRjMGGAFCvaMH9UQDvAjdNQ+SGkPboB60EroUakRDBCMREw
DwYDVQQKDAhUZXN0IE9yZzEtMCsGA1UEAwwkVGVzdCBPcmcgUHJvdmlzaW9uaW5n
IENBIERldmVsb3BtZW50ggEBMAwGA1UdEwQFMAMBAf8wDQYJKoZIhvcNAQELBQAD
ggEBACybIflpS2FpluxI9dNgJGyZT4kw8uwzU3nDKWvq/Y7ZJ/brPXHNE0/mQAd6
cen3I5Y4ZaCpkYN1vFfZrdIfV3kOMjQ38eQ461q0rmCNQES6C+EiTvrwPSldZg/f
zRacbAK0pQJDs0WOcM3To0P/kv9S0MRd2NNrJaEH6n9bh14CidCYdvuLfTuptMna
MXiF5j0PG3OyR2XQPxjaVCpiP0L398K5Uy2Xx5wEksjW3MYu22voJjqyErS5unRU
7yaibC8a5XJzWqM6lrwI/KbafRj2SMmpvakAaRopw7I/PY/oFhkckvWNsHO1BMwj
ss10eZrnWFzYcuhRG199MXEjFrc=
-----END CERTIFICATE-----
