Certificate:
    Data:
        Version: 3 (0x2)
        Serial Number: 3 (0x3)
    Signature Algorithm: sha256WithRSAEncryption
        Issuer: O=Test Org, CN=Test Org Provisioning CA Root
        Validity
            Not Before: Jan  1 00:00:00 1970 GMT
            Not After : Dec 31 23:59:59 9999 GMT
        Subject: O=Test Org, CN=Test Org Provisioning CA Development
        Subject Public Key Info:
            Public Key Algorithm: rsaEncryption
                Public-Key: (2048 bit)
                Modulus:
                    00:c5:e5:39:6a:55:29:10:b1:50:c8:11:98:58:fe:
                    09:9c:34:e6:ac:20:2b:fd:4d:63:b4:d7:92:60:ad:
                    8a:28:ec:0f:d7:ba:8b:1d:74:e9:52:24:49:6a:9d:
                    ca:0e:02:72:b2:7a:c2:1e:e3:df:cf:5a:62:db:28:
                    e8:98:74:90:ef:4a:f0:f0:6c:ed:21:ba:26:5e:f0:
                    ba:79:ad:a6:36:43:d1:e2:74:c6:84:af:44:ac:55:
                    1e:bb:79:88:36:80:b9:42:1e:8c:b7:5e:cd:60:7f:
                    e9:75:79:80:20:cc:1f:27:87:fd:74:bb:93:be:4f:
                    66:a2:cc:32:9f:96:cc:40:d0:11:21:a8:32:dd:7f:
                    e3:8d:14:9e:67:fc:92:e2:3c:53:2d:e7:05:bc:ad:
                    20:42:31:68:86:e8:57:62:92:f6:00:86:be:74:e7:
                    b1:dd:c4:00:88:a6:f4:1b:81:e5:ce:57:f4:83:cd:
                    5d:48:31:7a:3a:dd:10:d7:a3:13:9f:13:7e:7d:cc:
                    2e:27:5d:b1:35:97:48:f0:a9:e4:f4:72:1c:cf:54:
                    b3:0a:f4:13:0b:af:9f:27:d5:d1:b7:63:0d:23:76:
                    cd:dc:19:f6:c7:9f:06:45:e3:79:ed:f5:7a:34:fb:
                    ce:42:78:07:85:65:ee:67:96:e4:b5:83:4a:0d:4e:
                    f4:d3
                Exponent: 65537 (0x10001)
        X509v3 extensions:
            X509v3 Subject Key Identifier: 
                80:5A:06:66:1D:27:94:AC:D4:4A:FB:3E:FE:E4:FC:9C:BC:75:55:FE
            X509v3 Authority Key Identifier: 
                keyid:20:02:A1:59:1C:07:94:4A:AA:25:27:C9:49:60:BB:14:0F:83:12:08
                DirName:/O=Test Org/CN=Test Org Provisioning CA Root
                serial:01

            X509v3 Basic Constraints: 
                CA:TRUE, pathlen:0
    Signature Algorithm: sha256WithRSAEncryption
         b9:47:70:46:cc:d0:a0:57:b2:2c:18:80:45:b5:ef:aa:47:47:
         f9:c5:33:5d:93:da:ee:29:a6:bc:83:73:b0:fb:63:b9:71:67:
         dd:8e:ab:b0:15:c2:e6:a6:5e:67:b1:0a:3e:1f:ed:56:93:d1:
         23:7d:c3:7c:75:90:5c:8f:fa:6f:6e:16:07:cb:77:a7:a7:f3:
         30:62:69:de:24:0b:1c:f1:c9:90:c4:95:ae:ae:39:2f:20:5c:
         d7:89:9f:c6:0b:8f:0a:4c:b4:2b:b0:f4:6c:24:17:98:49:7c:
         96:a9:9f:ff:3d:7e:9f:b6:c5:b3:a9:67:71:c8:96:6b:b9:0b:
         9d:39:e7:e1:e5:27:64:dc:be:c2:82:7a:e2:30:fe:29:c1:39:
         98:99:70:5e:34:2d:1e:e2:4e:92:c5:f3:a2:b3:24:3a:9f:f2:
         1d:10:1e:af:e4:c5:81:53:61:90:91:52:9e:0e:38:94:e7:2f:
         1e:34:8b:54:2c:9a:45:1e:f2:75:d9:ce:ec:a7:a3:59:8d:bf:
         b2:49:8c:6a:61:b2:b6:70:24:66:80:30:85:f1:f0:28:89:8b:
         52:87:fd:52:c1:a5:d6:41:7c:c6:64:91:98:5f:cc:1b:48:4e:
         54:7b:77:ab:00:f5:d8:fa:76:75:50:0d:44:c3:d1:90:0c:93:
         75:0f:10:dc
-----BEGIN CERTIFICATE-----
MIIDlTCCAn2gAwIBAgIBAzANBgkqhkiG9w0BAQsFADA7MREwDwYDVQQKDAhUZXN0
IE9yZzEmMCQGA1UEAwwdVGVzdCBPcmcgUHJvdmlzaW9uaW5nIENBIFJvb3QwIhgP
MTk3MDAxMDEwMDAwMDBaGA85OTk5MTIzMTIzNTk1OVowQjERMA8GA1UECgwIVGVz
dCBPcmcxLTArBgNVBAMMJFRlc3QgT3JnIFByb3Zpc2lvbmluZyBDQSBEZXZlbG9w
bWVudDCCASIwDQYJKoZIhvcNAQEBBQADggEPADCCAQoCggEBAMXlOWpVKRCxUMgR
mFj+CZw05qwgK/1NY7TXkmCtiijsD9e6ix106VIkSWqdyg4CcrJ6wh7j389aYtso
6Jh0kO9K8PBs7SG6Jl7wunmtpjZD0eJ0xoSvRKxVHrt5iDaAuUIejLdezWB/6XV5
gCDMHyeH/XS7k75PZqLMMp+WzEDQESGoMt1/440Unmf8kuI8Uy3nBbytIEIxaIbo
V2KS9gCGvnTnsd3EAIim9BuB5c5X9IPNXUgxejrdENejE58Tfn3MLiddsTWXSPCp
5PRyHM9Uswr0EwuvnyfV0bdjDSN2zdwZ9sefBkXjee31ejT7zkJ4B4Vl7meW5LWD
Sg1O9NMCAwEAAaOBmDCBlTAdBgNVHQ4EFgQUgFoGZh0nlKzUSvs+/uT8nLx1Vf4w
YwYDVR0jBFwwWoAUIAKhWRwHlEqqJSfJSWC7FA+DEgihP6Q9MDsxETAPBgNVBAoM
CFRlc3QgT3JnMSYwJAYDVQQDDB1UZXN0IE9yZyBQcm92aXNpb25pbmcgQ0EgUm9v
dIIBATAPBgNVHRMECDAGAQH/AgEAMA0GCSqGSIb3DQEBCwUAA4IBAQC5R3BGzNCg
V7IsGIBFte+qR0f5xTNdk9ruKaa8g3Ow+2O5cWfdjquwFcLmpl5nsQo+H+1Wk9Ej
fcN8dZBcj/pvbhYHy3enp/MwYmneJAsc8cmQxJWurjkvIFzXiZ/GC48KTLQrsPRs
JBeYSXyWqZ//PX6ftsWzqWdxyJZruQudOefh5Sdk3L7CgnriMP4pwTmYmXBeNC0e
4k6SxfOisyQ6n/IdEB6v5MWBU2GQkVKeDjiU5y8eNItULJpFHvJ12c7sp6NZjb+y
SYxqYbK2cCRmgDCF8fAoiYtSh/1SwaXWQXzGZJGYX8wbSE5Ue3erAPXY+nZ1UA1E
w9GQDJN1DxDc
-----END CERTIFICATE-----
