Certificate:
    Data:
        Version: 3 (0x2)
        Serial Number: 3 (0x3)
        Signature Algorithm: sha256WithRSAEncryption
        Issuer: O=Test Org, CN=Test Org Provisioning CA Development
        Validity
            Not Before: Jan  1 00:00:00 1970 GMT
            Not After : Dec 31 23:59:59 9999 GMT
        Subject: O=Test Org, CN=Test Org XKU emailProtection
        Subject Public Key Info:
            Public Key Algorithm: rsaEncryption
                RSA Public-Key: (2048 bit)
                Modulus:
                    00:b1:26:89:2a:94:fe:86:ba:ea:09:cd:66:a0:b9:
                    eb:47:5b:9d:a9:77:3d:78:b5:a2:d9:82:51:7f:a5:
                    45:1a:19:b0:49:81:76:dc:18:62:e8:14:07:22:f7:
                    e8:41:b1:d0:f2:7d:a6:8c:0c:9e:6d:c9:69:55:09:
                    d2:df:3f:e1:d4:32:87:b1:91:66:6b:dc:14:32:dc:
                    14:05:6c:2c:76:35:42:27:2c:38:fd:c2:a6:4f:fd:
                    4d:99:d5:29:ac:2d:af:72:0b:1a:91:e7:ba:ff:19:
                    80:e7:ab:37:4c:45:4e:d2:10:f4:52:69:fd:aa:6b:
                    fe:e4:43:0f:24:28:f2:2b:5b:77:f2:d9:13:d5:0c:
                    25:3e:a3:59:07:38:3d:e3:ee:cd:eb:64:a5:03:80:
                    ed:58:e4:5a:7d:fe:94:b6:dd:30:85:05:7e:33:d3:
                    d6:1b:ab:b3:a8:31:a3:aa:7d:77:da:17:6a:12:9b:
                    2c:4f:66:03:e8:15:b2:5a:78:84:b0:e4:b8:6a:65:
                    7e:5c:12:50:bd:1b:74:0e:10:fa:15:9c:6e:24:31:
                    1c:e9:ca:62:d5:11:cd:30:da:8d:76:cb:da:a2:6f:
                    d8:2a:33:60:3d:09:1d:41:fa:d6:a7:85:85:5f:e2:
                    e7:67:dc:14:4a:aa:8a:5d:a7:17:91:6b:a8:74:e7:
                    b8:ed
                Exponent: 65537 (0x10001)
        X509v3 extensions:
            X509v3 Subject Key Identifier: 
                5C:68:72:1F:55:FC:B8:B6:A4:69:A8:72:48:38:9D:A4:3F:60:7C:17
            X509v3 Authority Key Identifier: 
                keyid:80:5A:06:66:1D:27:94:AC:D4:4A:FB:3E:FE:E4:FC:9C:BC:75:55:FE
                DirName:/O=Test Org/CN=Test Org Provisioning CA Root
                serial:03

            X509v3 Basic Constraints: 
                CA:FALSE
            X509v3 Extended Key Usage: critical
                E-mail Protection
    Signature Algorithm: sha256WithRSAEncryption
         5a:55:26:87:e7:dd:20:96:46:50:8a:d2:df:29:6a:0d:4e:1a:
         14:40:f8:4e:13:3c:27:60:de:95:89:b9:91:8e:89:f4:b8:93:
         fe:20:c0:3e:d3:e6:f4:dd:e5:e1:3e:2c:2c:a3:9e:83:46:ab:
         25:a5:aa:70:37:3f:ac:f3:8b:3d:63:43:25:9a:d6:65:ed:e9:
         45:1f:21:de:f6:e4:81:cf:0f:68:1b:42:1a:9e:03:11:70:af:
         86:1c:9a:7d:6d:a1:44:a3:45:15:61:f5:be:f9:83:ff:bd:62:
         51:cb:61:7e:6c:ae:47:80:e4:96:f1:ae:51:45:32:0c:a5:fa:
         22:1b:7b:40:87:9e:a9:e2:cb:34:a4:ea:4f:a5:7b:b8:0c:91:
         3f:fb:9b:b1:d5:75:ef:8f:fe:4a:4a:11:53:e4:5c:d5:11:ce:
         68:b4:48:b6:f2:2c:18:3a:d0:a6:5c:83:5d:46:47:75:91:09:
         1b:95:f4:9f:4f:df:7a:9f:49:d3:8b:36:82:63:8b:86:dd:3a:
         7e:2f:dd:ed:ff:a1:5c:76:5b:54:ef:0e:65:c3:38:92:0c:0a:
         e5:b3:1a:b5:8c:0c:80:e9:ea:47:fb:da:06:63:7a:01:5b:3e:
         36:1b:35:14:9f:93:8d:7c:03:56:f8:87:9a:3a:6e:fb:83:ea:
         6c:34:35:16
-----BEGIN CERTIFICATE-----
MIIDpDCCAoygAwIBAgIBAzANBgkqhkiG9w0BAQsFADBCMREwDwYDVQQKDAhUZXN0
IE9yZzEtMCsGA1UEAwwkVGVzdCBPcmcgUHJvdmlzaW9uaW5nIENBIERldmVsb3Bt
ZW50MCAXDTcwMDEwMTAwMDAwMFoYDzk5OTkxMjMxMjM1OTU5WjA6MREwDwYDVQQK
DAhUZXN0IE9yZzElMCMGA1UEAwwcVGVzdCBPcmcgWEtVIGVtYWlsUHJvdGVjdGlv
bjCCASIwDQYJKoZIhvcNAQEBBQADggEPADCCAQoCggEBALEmiSqU/oa66gnNZqC5
60dbnal3PXi1otmCUX+lRRoZsEmBdtwYYugUByL36EGx0PJ9powMnm3JaVUJ0t8/
4dQyh7GRZmvcFDLcFAVsLHY1QicsOP3Cpk/9TZnVKawtr3ILGpHnuv8ZgOerN0xF
TtIQ9FJp/apr/uRDDyQo8itbd/LZE9UMJT6jWQc4PePuzetkpQOA7VjkWn3+lLbd
MIUFfjPT1hurs6gxo6p9d9oXahKbLE9mA+gVslp4hLDkuGplflwSUL0bdA4Q+hWc
biQxHOnKYtURzTDajXbL2qJv2CozYD0JHUH61qeFhV/i52fcFEqqil2nF5FrqHTn
uO0CAwEAAaOBqjCBpzAdBgNVHQ4EFgQUXGhyH1X8uLakaahySDidpD9gfBcwYwYD
VR0jBFwwWoAUgFoGZh0nlKzUSvs+/uT8nLx1Vf6hP6Q9MDsxETAPBgNVBAoMCFRl
c3QgT3JnMSYwJAYDVQQDDB1UZXN0IE9yZyBQcm92aXNpb25pbmcgQ0EgUm9vdIIB
AzAJBgNVHRMEAjAAMBYGA1UdJQEB/wQMMAoGCCsGAQUFBwMEMA0GCSqGSIb3DQEB
CwUAA4IBAQBaVSaH590glkZQitLfKWoNThoUQPhOEzwnYN6VibmRjon0uJP+IMA+
0+b03eXhPiwso56DRqslpapwNz+s84s9Y0MlmtZl7elFHyHe9uSBzw9oG0IangMR
cK+GHJp9baFEo0UVYfW++YP/vWJRy2F+bK5HgOSW8a5RRTIMpfoiG3tAh56p4ss0
pOpPpXu4DJE/+5ux1XXvj/5KShFT5FzVEc5otEi28iwYOtCmXINdRkd1kQkblfSf
T996n0nTizaCY4uG3Tp+L93t/6FcdltU7w5lwziSDArlsxq1jAyA6epH+9oGY3oB
Wz42GzUUn5ONfANW+IeaOm77g+psNDUW
-----END CERTIFICATE-----
