Certificate:
    Data:
        Version: 3 (0x2)
        Serial Number: 4 (0x4)
        Signature Algorithm: sha256WithRSAEncryption
        Issuer: O=Test Org, CN=Test Org Provisioning CA Development
        Validity
            Not Before: Jan  1 00:00:00 1970 GMT
            Not After : Dec 31 23:59:59 9999 GMT
        Subject: O=Test Org, CN=Test Org XKU codeSigning
        Subject Public Key Info:
            Public Key Algorithm: rsaEncryption
                RSA Public-Key: (2048 bit)
                Modulus:
                    00:9e:2f:15:d0:9e:47:02:11:56:f3:e3:52:86:14:
                    93:89:7a:b3:dd:17:66:b5:7b:97:f9:51:03:82:f7:
                    7d:f9:0c:53:a0:7b:a7:6a:c8:ec:a4:c1:0f:cb:02:
                    5a:b3:f0:fa:0c:de:e6:77:a4:1b:66:9d:c1:0a:ae:
                    f9:51:59:18:7c:70:d4:97:fb:ad:ca:a8:e1:82:1b:
                    ad:18:80:5f:f7:83:01:ee:77:ba:30:4a:02:83:8b:
                    d5:2c:e1:0e:3a:c3:b8:af:59:52:4d:13:c6:5f:7c:
                    dd:cc:b2:99:ec:a9:0a:78:87:1e:d8:fa:92:2d:ef:
                    6e:db:12:eb:d7:0c:7a:cd:b9:d8:31:85:67:db:14:
                    33:27:34:1c:85:66:48:45:69:0f:01:6e:2b:07:5b:
                    cf:8c:55:c3:ae:9c:78:68:b6:8e:1d:2a:60:5e:59:
                    08:64:a4:37:e2:cb:32:65:83:18:8e:d2:58:46:c6:
                    af:26:79:29:34:d6:fb:29:7f:91:6e:e4:8e:db:cd:
                    4e:fe:94:12:b6:29:10:52:e0:ed:18:d3:39:d1:f8:
                    e4:1d:25:6a:5b:b7:b8:a0:2e:a1:87:82:fe:80:89:
                    e9:5b:42:c5:c9:68:8c:09:c1:b2:9c:12:d3:a1:3d:
                    f6:76:38:57:a7:c5:69:16:5e:4d:27:25:a6:7e:e9:
                    49:f9
                Exponent: 65537 (0x10001)
        X509v3 extensions:
            X509v3 Subject Key Identifier: 
                56:68:B2:31:3E:60:18:96:D6:A0:B7:B5:50:B0:FC:AC:DC:DE:8B:74
            X509v3 Authority Key Identifier: 
                keyid:80:5A:06:66:1D:27:94:AC:D4:4A:FB:3E:FE:E4:FC:9C:BC:75:55:FE
                DirName:/O=Test Org/CN=Test Org Provisioning CA Root
                serial:03

            X509v3 Basic Constraints: 
                CA:FALSE
            X509v3 Extended Key Usage: critical
                Code Signing
    Signature Algorithm: sha256WithRSAEncryption
         62:8f:83:35:e4:5c:68:e9:8e:80:3e:84:54:bd:fb:71:3d:a7:
         56:42:4c:94:8d:e7:71:3a:81:2d:e9:51:8a:ee:44:31:12:bb:
         04:50:25:f8:5e:4e:11:73:75:69:39:fc:c6:70:f8:e4:84:7e:
         ca:d7:05:e3:e7:f6:9a:39:37:d4:d5:b3:09:33:f7:ff:23:5d:
         77:16:9f:64:ea:ad:88:1a:96:e7:f8:b8:2f:13:58:36:f4:4a:
         10:2f:ca:6d:19:62:dc:44:c2:7f:e9:05:ea:4a:02:5a:a6:74:
         8e:e2:15:83:32:62:67:2e:36:53:83:bb:70:0c:e4:82:c6:e6:
         5c:c6:50:34:67:0c:8e:2f:58:a6:17:85:75:6e:e2:ea:56:1f:
         5b:f4:87:88:4b:f4:8d:8e:54:86:29:58:a8:74:62:d5:51:f5:
         81:f0:d7:0e:e4:76:ca:11:ba:de:f8:f5:ee:67:cf:b4:5f:84:
         eb:f9:e2:84:8e:05:26:97:ba:8f:2d:15:4a:06:a9:29:2c:f6:
         f2:c0:00:f1:6e:58:f4:3e:1a:24:6a:98:d8:ad:f0:96:c7:a6:
         68:72:04:6d:1d:45:28:9d:03:04:14:49:5f:86:a9:65:07:16:
         1a:4f:e3:ec:dc:34:10:ee:bc:e7:e2:fe:f1:3b:a1:56:56:68:
         63:98:03:70
-----BEGIN CERTIFICATE-----
MIIDoDCCAoigAwIBAgIBBDANBgkqhkiG9w0BAQsFADBCMREwDwYDVQQKDAhUZXN0
IE9yZzEtMCsGA1UEAwwkVGVzdCBPcmcgUHJvdmlzaW9uaW5nIENBIERldmVsb3Bt
ZW50MCAXDTcwMDEwMTAwMDAwMFoYDzk5OTkxMjMxMjM1OTU5WjA2MREwDwYDVQQK
DAhUZXN0IE9yZzEhMB8GA1UEAwwYVGVzdCBPcmcgWEtVIGNvZGVTaWduaW5nMIIB
IjANBgkqhkiG9w0BAQEFAAOCAQ8AMIIBCgKCAQEAni8V0J5HAhFW8+NShhSTiXqz
3RdmtXuX+VEDgvd9+QxToHunasjspMEPywJas/D6DN7md6QbZp3BCq75UVkYfHDU
l/utyqjhghutGIBf94MB7ne6MEoCg4vVLOEOOsO4r1lSTRPGX3zdzLKZ7KkKeIce
2PqSLe9u2xLr1wx6zbnYMYVn2xQzJzQchWZIRWkPAW4rB1vPjFXDrpx4aLaOHSpg
XlkIZKQ34ssyZYMYjtJYRsavJnkpNNb7KX+RbuSO281O/pQStikQUuDtGNM50fjk
HSVqW7e4oC6hh4L+gInpW0LFyWiMCcGynBLToT32djhXp8VpFl5NJyWmfulJ+QID
AQABo4GqMIGnMB0GA1UdDgQWBBRWaLIxPmAYltagt7VQsPys3N6LdDBjBgNVHSME
XDBagBSAWgZmHSeUrNRK+z7+5PycvHVV/qE/pD0wOzERMA8GA1UECgwIVGVzdCBP
cmcxJjAkBgNVBAMMHVRlc3QgT3JnIFByb3Zpc2lvbmluZyBDQSBSb290ggEDMAkG
A1UdEwQCMAAwFgYDVR0lAQH/BAwwCgYIKwYBBQUHAwMwDQYJKoZIhvcNAQELBQAD
ggEBAGKPgzXkXGjpjoA+hFS9+3E9p1ZCTJSN53E6gS3pUYruRDESuwRQJfheThFz
dWk5/MZw+OSEfsrXBePn9po5N9TVswkz9/8jXXcWn2TqrYgaluf4uC8TWDb0ShAv
ym0ZYtxEwn/pBepKAlqmdI7iFYMyYmcuNlODu3AM5ILG5lzGUDRnDI4vWKYXhXVu
4upWH1v0h4hL9I2OVIYpWKh0YtVR9YHw1w7kdsoRut749e5nz7RfhOv54oSOBSaX
uo8tFUoGqSks9vLAAPFuWPQ+GiRqmNit8JbHpmhyBG0dRSidAwQUSV+GqWUHFhpP
4+zcNBDuvOfi/vE7oVZWaGOYA3A=
-----END CERTIFICATE-----
