Certificate:
    Data:
        Version: 3 (0x2)
        Serial Number: 5 (0x5)
        Signature Algorithm: sha256WithRSAEncryption
        Issuer: O=Test Org, CN=Test Org Provisioning CA Root
        Validity
            Not Before: Jan  1 00:00:00 1970 GMT
            Not After : Dec 31 23:59:59 9999 GMT
        Subject: O=Test Org, CN=Test Org Provisioning CA Web
        Subject Public Key Info:
            Public Key Algorithm: rsaEncryption
                RSA Public-Key: (2048 bit)
                Modulus:
                    00:aa:3b:e9:83:31:1c:78:6d:26:14:c3:52:4c:74:
                    9e:2a:ab:92:67:26:a9:fa:69:2b:ef:1d:d8:d9:49:
                    61:04:c5:82:75:69:bd:16:39:4b:ab:d4:59:20:2e:
                    5c:80:5a:fd:f0:5f:ab:e8:61:fa:34:92:1f:56:42:
                    06:62:e7:f0:73:5f:50:63:cf:a4:c2:15:ff:b0:b8:
                    5a:ca:2a:96:5e:36:60:af:45:a5:2e:2e:50:59:e3:
                    e7:bc:7f:be:1e:be:cd:8f:a6:1b:41:31:31:f3:fa:
                    1c:72:d2:2b:dc:81:c6:30:25:19:7f:1e:12:48:31:
                    39:7d:14:82:82:98:69:32:7d:30:d7:58:02:6a:d6:
                    54:a6:9c:ae:fa:e6:b4:98:25:a6:be:84:c2:9f:4c:
                    fe:5a:a8:b0:0b:fe:65:84:4e:03:b8:b1:d1:d8:d8:
                    a3:78:bb:3a:ae:90:82:8a:fb:2b:20:cc:3d:d3:aa:
                    8e:39:49:f7:b5:35:aa:c2:a1:bf:07:7d:25:1e:ab:
                    ed:f4:4f:aa:63:e5:5b:75:e8:17:ee:b9:10:e2:8f:
                    28:f8:c1:26:b8:2f:d4:44:82:7b:50:a8:5a:ea:93:
                    5b:65:d1:27:20:57:52:60:90:fd:72:03:fd:3f:7c:
                    c5:2b:1c:e6:ff:43:40:fd:c7:63:2a:d6:5d:40:e3:
                    ff:e7
                Exponent: 65537 (0x10001)
        X509v3 extensions:
            X509v3 Subject Key Identifier: 
                92:0B:8A:6E:FF:13:4C:C7:48:21:32:31:EC:05:63:7B:B2:3D:1D:CD
            X509v3 Authority Key Identifier: 
                keyid:20:02:A1:59:1C:07:94:4A:AA:25:27:C9:49:60:BB:14:0F:83:12:08
                DirName:/O=Test Org/CN=Test Org Provisioning CA Root
                serial:01

            X509v3 Basic Constraints: 
                CA:TRUE, pathlen:0
    Signature Algorithm: sha256WithRSAEncryption
         b7:dd:09:3b:9a:f6:8a:7e:56:c1:d5:ea:58:77:9d:fd:80:f8:
         36:4f:5e:19:4d:9d:38:72:12:a4:ce:cb:83:94:a2:f0:bc:06:
         9a:42:2d:47:de:1d:11:d9:0b:37:93:78:f6:df:eb:21:a9:f3:
         1d:05:95:da:53:e7:8c:e0:72:ef:fc:09:db:c4:27:7b:13:13:
         40:08:97:8b:f8:41:90:ac:ee:48:a6:d9:16:a5:20:c9:78:cc:
         a8:f2:2e:9e:d2:88:9c:b8:56:f5:b9:73:56:1e:e4:af:cb:1c:
         1d:f7:d0:8f:82:85:c7:72:be:46:fc:ed:8f:45:34:5a:ad:08:
         87:9e:6b:0d:61:6f:e2:bd:80:6c:3b:ab:df:00:5f:85:ce:06:
         ce:1c:b9:f2:0e:57:58:ac:36:8c:64:ef:65:27:9f:f6:65:a1:
         29:0f:b1:c5:f2:d5:d9:9b:35:4b:fa:47:ce:a3:4f:65:08:00:
         84:b7:57:58:54:f0:4d:4b:3f:ce:f9:aa:de:41:f6:13:79:7c:
         9f:f3:09:47:23:44:61:89:4a:67:ca:01:82:60:15:4e:eb:3d:
         d0:8e:de:9f:24:9a:cc:56:fe:ac:78:e5:f1:1d:ff:8a:f2:c3:
         d8:e7:e4:4a:12:51:a1:a1:1d:27:0d:94:c6:7e:0a:2c:6d:d2:
         4a:06:24:18
-----BEGIN CERTIFICATE-----
MIIDizCCAnOgAwIBAgIBBTANBgkqhkiG9w0BAQsFADA7MREwDwYDVQQKDAhUZXN0
IE9yZzEmMCQGA1UEAwwdVGVzdCBPcmcgUHJvdmlzaW9uaW5nIENBIFJvb3QwIBcN
NzAwMTAxMDAwMDAwWhgPOTk5OTEyMzEyMzU5NTlaMDoxETAPBgNVBAoMCFRlc3Qg
T3JnMSUwIwYDVQQDDBxUZXN0IE9yZyBQcm92aXNpb25pbmcgQ0EgV2ViMIIBIjAN
BgkqhkiG9w0BAQEFAAOCAQ8AMIIBCgKCAQEAqjvpgzEceG0mFMNSTHSeKquSZyap
+mkr7x3Y2UlhBMWCdWm9FjlLq9RZIC5cgFr98F+r6GH6NJIfVkIGYufwc19QY8+k
whX/sLhayiqWXjZgr0WlLi5QWePnvH++Hr7Nj6YbQTEx8/occtIr3IHGMCUZfx4S
SDE5fRSCgphpMn0w11gCatZUppyu+ua0mCWmvoTCn0z+WqiwC/5lhE4DuLHR2Nij
eLs6rpCCivsrIMw906qOOUn3tTWqwqG/B30lHqvt9E+qY+VbdegX7rkQ4o8o+MEm
uC/URIJ7UKha6pNbZdEnIFdSYJD9cgP9P3zFKxzm/0NA/cdjKtZdQOP/5wIDAQAB
o4GYMIGVMB0GA1UdDgQWBBSSC4pu/xNMx0ghMjHsBWN7sj0dzTBjBgNVHSMEXDBa
gBQgAqFZHAeUSqolJ8lJYLsUD4MSCKE/pD0wOzERMA8GA1UECgwIVGVzdCBPcmcx
JjAkBgNVBAMMHVRlc3QgT3JnIFByb3Zpc2lvbmluZyBDQSBSb290ggEBMA8GA1Ud
EwQIMAYBAf8CAQAwDQYJKoZIhvcNAQELBQADggEBALfdCTua9op+VsHV6lh3nf2A
+DZPXhlNnThyEqTOy4OUovC8BppCLUfeHRHZCzeTePbf6yGp8x0FldpT54zgcu/8
CdvEJ3sTE0AIl4v4QZCs7kim2RalIMl4zKjyLp7SiJy4VvW5c1Ye5K/LHB330I+C
hcdyvkb87Y9FNFqtCIeeaw1hb+K9gGw7q98AX4XOBs4cufIOV1isNoxk72Unn/Zl
oSkPscXy1dmbNUv6R86jT2UIAIS3V1hU8E1LP875qt5B9hN5fJ/zCUcjRGGJSmfK
AYJgFU7rPdCO3p8kmsxW/qx45fEd/4ryw9jn5EoSUaGhHScNlMZ+Cixt0koGJBg=
-----END CERTIFICATE-----
