Certificate:
    Data:
        Version: 3 (0x2)
        Serial Number: 2 (0x2)
        Signature Algorithm: sha256WithRSAEncryption
        Issuer: O=Test Org, CN=Test Org Provisioning CA Web
        Validity
            Not Before: Jan  1 00:00:00 1970 GMT
            Not After : Dec 31 23:59:59 9999 GMT
        Subject: O=Test Org, CN=Test Org Web Client 1
        Subject Public Key Info:
            Public Key Algorithm: rsaEncryption
                RSA Public-Key: (2048 bit)
                Modulus:
                    00:cf:dc:83:9a:c3:98:7a:ba:8e:a0:7a:b0:70:fb:
                    4e:64:44:31:90:fc:7c:b9:90:a2:f0:a7:d8:95:c9:
                    e5:df:12:56:18:52:52:95:8a:b0:27:d8:e0:8a:9b:
                    9a:eb:61:fd:a7:7e:73:3f:5b:a3:84:53:4b:d6:1c:
                    48:c1:1c:df:04:cc:59:50:e3:e3:3e:17:c5:b6:87:
                    4d:11:7b:9c:5f:03:81:c2:b5:c0:8f:c5:26:a0:e5:
                    de:51:43:3a:2f:5b:1f:1c:16:67:f1:a8:23:8a:b0:
                    e2:23:b6:a1:11:48:1c:81:4c:b8:d6:6c:20:c8:86:
                    1f:a1:2a:e6:31:09:23:f3:cd:6b:8b:7f:51:a8:ca:
                    8f:de:a0:bb:51:1f:98:83:4d:e2:19:3e:83:ba:ee:
                    ac:92:5a:53:10:67:bf:2f:dc:02:a1:ac:35:d5:70:
                    8f:bf:fb:94:b8:41:2d:e3:8a:eb:63:a9:d2:93:9b:
                    56:8d:68:8b:ac:c4:43:93:d4:22:27:ba:cf:9b:df:
                    a0:85:4f:cd:83:3d:60:4c:dd:e1:64:1f:de:39:66:
                    69:df:18:91:88:54:df:04:10:a7:b1:5e:c3:6b:09:
                    78:39:9f:4b:35:63:15:b0:9d:cc:49:d0:c7:df:d8:
                    1a:de:3c:e6:be:c7:75:2c:86:5a:1d:12:4b:95:d4:
                    48:47
                Exponent: 65537 (0x10001)
        X509v3 extensions:
            X509v3 Subject Key Identifier: 
                CE:2E:51:4B:A0:D2:0C:2D:F5:9E:9E:2A:42:2E:1E:7B:E9:B6:BE:68
            X509v3 Authority Key Identifier: 
                keyid:92:0B:8A:6E:FF:13:4C:C7:48:21:32:31:EC:05:63:7B:B2:3D:1D:CD
                DirName:/O=Test Org/CN=Test Org Provisioning CA Root
                serial:05

            X509v3 Basic Constraints: 
                CA:FALSE
            X509v3 Key Usage: critical
                Digital Signature, Key Encipherment
            X509v3 Extended Key Usage: 
                TLS Web Client Authentication
    Signature Algorithm: sha256WithRSAEncryption
         89:0b:94:2d:3c:55:e5:ad:68:1f:80:2f:7c:73:41:6c:a3:46:
         b1:0c:af:f4:35:c6:02:63:61:b6:ba:8a:e9:39:aa:ca:55:4b:
         eb:36:b8:54:7d:56:70:fc:72:34:d0:ce:e5:e1:43:91:3b:91:
         73:c2:a8:58:64:2c:c7:6b:47:cb:5a:fe:e9:4d:8b:42:3c:48:
         57:6b:2e:2b:13:ae:36:f4:de:d1:e9:43:4d:d0:93:01:bf:c3:
         f3:ba:64:0e:ed:d9:ad:18:b6:48:42:93:3c:0b:56:f9:a0:5f:
         ef:ea:e1:c3:f4:fc:00:25:3f:12:cd:db:3a:59:2a:27:5c:21:
         39:33:1d:7b:36:0f:38:0a:81:d4:18:e2:f6:d9:c8:a4:a0:e5:
         7c:5d:bb:7b:27:bc:ac:80:0a:01:e4:8a:76:fa:03:03:7c:b9:
         b0:a4:d0:b3:42:a2:17:91:99:63:c1:ae:76:56:d0:a6:11:64:
         3e:09:32:7e:21:e1:0b:8a:14:41:f3:2c:95:cd:76:3b:76:f9:
         b1:cc:73:eb:a3:98:c9:58:0c:f1:ce:17:19:5d:db:9a:47:7a:
         92:37:3c:eb:a1:25:71:2a:07:28:c7:ff:73:13:37:9a:53:27:
         e4:77:f6:62:6d:13:fa:65:dc:78:c9:b4:e4:3d:b2:4c:f7:0a:
         55:41:71:fd
-----BEGIN CERTIFICATE-----
MIIDojCCAoqgAwIBAgIBAjANBgkqhkiG9w0BAQsFADA6MREwDwYDVQQKDAhUZXN0
IE9yZzElMCMGA1UEAwwcVGVzdCBPcmcgUHJvdmlzaW9uaW5nIENBIFdlYjAgFw03
MDAxMDEwMDAwMDBaGA85OTk5MTIzMTIzNTk1OVowMzERMA8GA1UECgwIVGVzdCBP
cmcxHjAcBgNVBAMMFVRlc3QgT3JnIFdlYiBDbGllbnQgMTCCASIwDQYJKoZIhvcN
AQEBBQADggEPADCCAQoCggEBAM/cg5rDmHq6jqB6sHD7TmREMZD8fLmQovCn2JXJ
5d8SVhhSUpWKsCfY4Iqbmuth/ad+cz9bo4RTS9YcSMEc3wTMWVDj4z4XxbaHTRF7
nF8DgcK1wI/FJqDl3lFDOi9bHxwWZ/GoI4qw4iO2oRFIHIFMuNZsIMiGH6Eq5jEJ
I/PNa4t/UajKj96gu1EfmINN4hk+g7rurJJaUxBnvy/cAqGsNdVwj7/7lLhBLeOK
62Op0pObVo1oi6zEQ5PUIie6z5vfoIVPzYM9YEzd4WQf3jlmad8YkYhU3wQQp7Fe
w2sJeDmfSzVjFbCdzEnQx9/YGt485r7HdSyGWh0SS5XUSEcCAwEAAaOBtzCBtDAd
BgNVHQ4EFgQUzi5RS6DSDC31np4qQi4ee+m2vmgwYwYDVR0jBFwwWoAUkguKbv8T
TMdIITIx7AVje7I9Hc2hP6Q9MDsxETAPBgNVBAoMCFRlc3QgT3JnMSYwJAYDVQQD
DB1UZXN0IE9yZyBQcm92aXNpb25pbmcgQ0EgUm9vdIIBBTAJBgNVHRMEAjAAMA4G
A1UdDwEB/wQEAwIFoDATBgNVHSUEDDAKBggrBgEFBQcDAjANBgkqhkiG9w0BAQsF
AAOCAQEAiQuULTxV5a1oH4AvfHNBbKNGsQyv9DXGAmNhtrqK6TmqylVL6za4VH1W
cPxyNNDO5eFDkTuRc8KoWGQsx2tHy1r+6U2LQjxIV2suKxOuNvTe0elDTdCTAb/D
87pkDu3ZrRi2SEKTPAtW+aBf7+rhw/T8ACU/Es3bOlkqJ1whOTMdezYPOAqB1Bji
9tnIpKDlfF27eye8rIAKAeSKdvoDA3y5sKTQs0KiF5GZY8GudlbQphFkPgkyfiHh
C4oUQfMslc12O3b5scxz66OYyVgM8c4XGV3bmkd6kjc866ElcSoHKMf/cxM3mlMn
5Hf2Ym0T+mXceMm05D2yTPcKVUFx/Q==
-----END CERTIFICATE-----
