Certificate:
    Data:
        Version: 3 (0x2)
        Serial Number: 1 (0x1)
        Signature Algorithm: sha256WithRSAEncryption
        Issuer: O=Test Org, CN=Test Org Provisioning CA Web
        Validity
            Not Before: Jan  1 00:00:00 1970 GMT
            Not After : Dec 31 23:59:59 9999 GMT
        Subject: O=Test Org, CN=Test Org Web Server
        Subject Public Key Info:
            Public Key Algorithm: rsaEncryption
                RSA Public-Key: (2048 bit)
                Modulus:
                    00:c3:dd:f5:f3:b4:6c:8d:80:69:0c:2e:12:29:75:
                    c5:fb:1b:0b:a1:4e:81:26:fd:f2:bf:4c:0f:17:42:
                    eb:bd:77:71:46:9f:09:97:fa:2d:62:01:2a:54:39:
                    63:b2:25:f9:ff:dc:4b:79:be:26:6b:31:97:d0:8e:
                    d1:32:d2:d4:a3:88:44:07:2c:e7:2e:6e:26:05:23:
                    01:20:c9:cf:f2:73:91:f0:be:23:0d:a2:43:15:f9:
                    fc:02:05:d2:3b:38:46:fa:f8:90:ec:07:82:36:b7:
                    34:23:81:e2:c8:4d:d6:4b:b1:24:30:05:26:77:79:
                    8e:3d:b2:47:59:d2:ff:3f:0f:0f:ca:cf:f7:6e:c9:
                    6e:5a:1a:eb:c7:13:6f:77:aa:c4:ad:c1:fe:db:e4:
                    2b:1c:83:16:e4:a4:92:12:2c:2c:65:45:9b:33:1f:
                    3f:c2:db:f5:1f:a7:aa:ea:59:93:10:81:c8:06:0b:
                    55:34:01:26:94:b9:de:f8:e9:84:7a:b7:64:0d:22:
                    a1:ba:93:18:d7:1d:71:3e:00:a9:2b:c5:3c:c9:a9:
                    14:40:98:cd:fd:c7:47:b5:49:9f:99:3b:ce:76:c9:
                    d6:98:01:ad:f9:1e:04:ed:b5:dc:a8:0d:e9:d1:4b:
                    cb:4c:02:ca:4d:a9:89:1f:d5:17:7d:cf:bd:d6:c5:
                    e6:3f
                Exponent: 65537 (0x10001)
        X509v3 extensions:
            X509v3 Subject Key Identifier: 
                C6:3C:C9:C2:D4:C4:28:F5:25:18:46:21:75:10:1C:98:93:5C:70:21
            X509v3 Authority Key Identifier: 
                keyid:92:0B:8A:6E:FF:13:4C:C7:48:21:32:31:EC:05:63:7B:B2:3D:1D:CD
                DirName:/O=Test Org/CN=Test Org Provisioning CA Root
                serial:05

            X509v3 Basic Constraints: 
                CA:FALSE
            X509v3 Key Usage: critical
                Digital Signature, Key Encipherment
            X509v3 Extended Key Usage: 
                TLS Web Server Authentication
            X509v3 Subject Alternative Name: 
                IP Address:127.0.0.1, IP Address:127.0.0.2, IP Address:127.0.0.3, IP Address:127.0.0.4
    Signature Algorithm: sha256WithRSAEncryption
         6c:b9:38:74:75:eb:2f:ad:01:f7:0a:3f:94:b3:3c:c1:2e:b6:
         42:f7:5c:a0:31:fe:35:94:b3:47:48:b9:ff:38:a0:56:9a:29:
         c9:06:00:86:26:17:00:f8:50:f3:ba:c8:0f:75:8c:68:34:4e:
         3a:a7:b6:77:ee:15:2f:5d:cf:53:3b:81:1e:7d:1f:34:96:1d:
         4d:ef:97:98:84:1c:8e:e0:bb:37:e3:b1:17:ef:ed:23:4c:0c:
         d5:e4:e8:ea:0f:fa:79:ee:0e:10:70:e5:bb:f2:9e:d4:3c:4a:
         ec:fc:75:b1:aa:6a:1a:4c:0d:f9:97:e8:52:cc:94:50:72:2b:
         87:93:00:e6:c2:1c:1d:e8:0e:68:38:16:a2:72:86:e4:09:04:
         00:0d:dc:c2:3f:be:b9:d1:ba:87:a7:48:5e:57:fc:94:b5:5d:
         4d:9d:95:b9:8b:b2:aa:dc:57:dc:df:5b:76:69:59:d8:04:08:
         4b:5a:bc:4a:6c:5d:d7:cd:b6:03:e4:b2:1f:d5:68:6b:79:18:
         ac:01:c1:a1:fd:34:16:7b:9e:ab:db:2f:b9:00:a6:92:a8:cc:
         ea:9f:12:e9:72:00:ea:a5:ef:e3:5a:e9:2e:8d:ab:57:ea:33:
         91:32:71:5e:c3:9b:6a:38:77:c1:a8:26:c8:8d:89:3a:a3:b8:
         38:69:2c:c9
-----BEGIN CERTIFICATE-----
MIIDwzCCAqugAwIBAgIBATANBgkqhkiG9w0BAQsFADA6MREwDwYDVQQKDAhUZXN0
IE9yZzElMCMGA1UEAwwcVGVzdCBPcmcgUHJvdmlzaW9uaW5nIENBIFdlYjAgFw03
MDAxMDEwMDAwMDBaGA85OTk5MTIzMTIzNTk1OVowMTERMA8GA1UECgwIVGVzdCBP
cmcxHDAaBgNVBAMME1Rlc3QgT3JnIFdlYiBTZXJ2ZXIwggEiMA0GCSqGSIb3DQEB
AQUAA4IBDwAwggEKAoIBAQDD3fXztGyNgGkMLhIpdcX7GwuhToEm/fK/TA8XQuu9
d3FGnwmX+i1iASpUOWOyJfn/3Et5viZrMZfQjtEy0tSjiEQHLOcubiYFIwEgyc/y
c5HwviMNokMV+fwCBdI7OEb6+JDsB4I2tzQjgeLITdZLsSQwBSZ3eY49skdZ0v8/
Dw/Kz/duyW5aGuvHE293qsStwf7b5CscgxbkpJISLCxlRZszHz/C2/Ufp6rqWZMQ
gcgGC1U0ASaUud746YR6t2QNIqG6kxjXHXE+AKkrxTzJqRRAmM39x0e1SZ+ZO852
ydaYAa35HgTttdyoDenRS8tMAspNqYkf1Rd9z73WxeY/AgMBAAGjgdowgdcwHQYD
VR0OBBYEFMY8ycLUxCj1JRhGIXUQHJiTXHAhMGMGA1UdIwRcMFqAFJILim7/E0zH
SCEyMewFY3uyPR3NoT+kPTA7MREwDwYDVQQKDAhUZXN0IE9yZzEmMCQGA1UEAwwd
VGVzdCBPcmcgUHJvdmlzaW9uaW5nIENBIFJvb3SCAQUwCQYDVR0TBAIwADAOBgNV
HQ8BAf8EBAMCBaAwEwYDVR0lBAwwCgYIKwYBBQUHAwEwIQYDVR0RBBowGIcEfwAA
AYcEfwAAAocEfwAAA4cEfwAABDANBgkqhkiG9w0BAQsFAAOCAQEAbLk4dHXrL60B
9wo/lLM8wS62QvdcoDH+NZSzR0i5/zigVpopyQYAhiYXAPhQ87rID3WMaDROOqe2
d+4VL13PUzuBHn0fNJYdTe+XmIQcjuC7N+OxF+/tI0wM1eTo6g/6ee4OEHDlu/Ke
1DxK7Px1sapqGkwN+ZfoUsyUUHIrh5MA5sIcHegOaDgWonKG5AkEAA3cwj++udG6
h6dIXlf8lLVdTZ2VuYuyqtxX3N9bdmlZ2AQIS1q8Smxd1822A+SyH9Voa3kYrAHB
of00Fnueq9svuQCmkqjM6p8S6XIA6qXv41rpLo2rV+ozkTJxXsObajh3wagmyI2J
OqO4OGksyQ==
-----END CERTIFICATE-----
Certificate:
    Data:
        Version: 3 (0x2)
        Serial Number: 5 (0x5)
        Signature Algorithm: sha256WithRSAEncryption
        Issuer: O=Test Org, CN=Test Org Provisioning CA Root
        Validity
            Not Before: Jan  1 00:00:00 1970 GMT
            Not After : Dec 31 23:59:59 9999 GMT
        Subject: O=Test Org, CN=Test Org Provisioning CA Web
        Subject Public Key Info:
            Public Key Algorithm: rsaEncryption
                RSA Public-Key: (2048 bit)
                Modulus:
                    00:aa:3b:e9:83:31:1c:78:6d:26:14:c3:52:4c:74:
                    9e:2a:ab:92:67:26:a9:fa:69:2b:ef:1d:d8:d9:49:
                    61:04:c5:82:75:69:bd:16:39:4b:ab:d4:59:20:2e:
                    5c:80:5a:fd:f0:5f:ab:e8:61:fa:34:92:1f:56:42:
                    06:62:e7:f0:73:5f:50:63:cf:a4:c2:15:ff:b0:b8:
                    5a:ca:2a:96:5e:36:60:af:45:a5:2e:2e:50:59:e3:
                    e7:bc:7f:be:1e:be:cd:8f:a6:1b:41:31:31:f3:fa:
                    1c:72:d2:2b:dc:81:c6:30:25:19:7f:1e:12:48:31:
                    39:7d:14:82:82:98:69:32:7d:30:d7:58:02:6a:d6:
                    54:a6:9c:ae:fa:e6:b4:98:25:a6:be:84:c2:9f:4c:
                    fe:5a:a8:b0:0b:fe:65:84:4e:03:b8:b1:d1:d8:d8:
                    a3:78:bb:3a:ae:90:82:8a:fb:2b:20:cc:3d:d3:aa:
                    8e:39:49:f7:b5:35:aa:c2:a1:bf:07:7d:25:1e:ab:
                    ed:f4:4f:aa:63:e5:5b:75:e8:17:ee:b9:10:e2:8f:
                    28:f8:c1:26:b8:2f:d4:44:82:7b:50:a8:5a:ea:93:
                    5b:65:d1:27:20:57:52:60:90:fd:72:03:fd:3f:7c:
                    c5:2b:1c:e6:ff:43:40:fd:c7:63:2a:d6:5d:40:e3:
                    ff:e7
                Exponent: 65537 (0x10001)
        X509v3 extensions:
            X509v3 Subject Key Identifier: 
                92:0B:8A:6E:FF:13:4C:C7:48:21:32:31:EC:05:63:7B:B2:3D:1D:CD
            X509v3 Authority Key Identifier: 
                keyid:20:02:A1:59:1C:07:94:4A:AA:25:27:C9:49:60:BB:14:0F:83:12:08
                DirName:/O=Test Org/CN=Test Org Provisioning CA Root
                serial:01

            X509v3 Basic Constraints: 
                CA:TRUE, pathlen:0
    Signature Algorithm: sha256WithRSAEncryption
         b7:dd:09:3b:9a:f6:8a:7e:56:c1:d5:ea:58:77:9d:fd:80:f8:
         36:4f:5e:19:4d:9d:38:72:12:a4:ce:cb:83:94:a2:f0:bc:06:
         9a:42:2d:47:de:1d:11:d9:0b:37:93:78:f6:df:eb:21:a9:f3:
         1d:05:95:da:53:e7:8c:e0:72:ef:fc:09:db:c4:27:7b:13:13:
         40:08:97:8b:f8:41:90:ac:ee:48:a6:d9:16:a5:20:c9:78:cc:
         a8:f2:2e:9e:d2:88:9c:b8:56:f5:b9:73:56:1e:e4:af:cb:1c:
         1d:f7:d0:8f:82:85:c7:72:be:46:fc:ed:8f:45:34:5a:ad:08:
         87:9e:6b:0d:61:6f:e2:bd:80:6c:3b:ab:df:00:5f:85:ce:06:
         ce:1c:b9:f2:0e:57:58:ac:36:8c:64:ef:65:27:9f:f6:65:a1:
         29:0f:b1:c5:f2:d5:d9:9b:35:4b:fa:47:ce:a3:4f:65:08:00:
         84:b7:57:58:54:f0:4d:4b:3f:ce:f9:aa:de:41:f6:13:79:7c:
         9f:f3:09:47:23:44:61:89:4a:67:ca:01:82:60:15:4e:eb:3d:
         d0:8e:de:9f:24:9a:cc:56:fe:ac:78:e5:f1:1d:ff:8a:f2:c3:
         d8:e7:e4:4a:12:51:a1:a1:1d:27:0d:94:c6:7e:0a:2c:6d:d2:
         4a:06:24:18
-----BEGIN CERTIFICATE-----
MIIDizCCAnOgAwIBAgIBBTANBgkqhkiG9w0BAQsFADA7MREwDwYDVQQKDAhUZXN0
IE9yZzEmMCQGA1UEAwwdVGVzdCBPcmcgUHJvdmlzaW9uaW5nIENBIFJvb3QwIBcN
NzAwMTAxMDAwMDAwWhgPOTk5OTEyMzEyMzU5NTlaMDoxETAPBgNVBAoMCFRlc3Qg
T3JnMSUwIwYDVQQDDBxUZXN0IE9yZyBQcm92aXNpb25pbmcgQ0EgV2ViMIIBIjAN
BgkqhkiG9w0BAQEFAAOCAQ8AMIIBCgKCAQEAqjvpgzEceG0mFMNSTHSeKquSZyap
+mkr7x3Y2UlhBMWCdWm9FjlLq9RZIC5cgFr98F+r6GH6NJIfVkIGYufwc19QY8+k
whX/sLhayiqWXjZgr0WlLi5QWePnvH++Hr7Nj6YbQTEx8/occtIr3IHGMCUZfx4S
SDE5fRSCgphpMn0w11gCatZUppyu+ua0mCWmvoTCn0z+WqiwC/5lhE4DuLHR2Nij
eLs6rpCCivsrIMw906qOOUn3tTWqwqG/B30lHqvt9E+qY+VbdegX7rkQ4o8o+MEm
uC/URIJ7UKha6pNbZdEnIFdSYJD9cgP9P3zFKxzm/0NA/cdjKtZdQOP/5wIDAQAB
o4GYMIGVMB0GA1UdDgQWBBSSC4pu/xNMx0ghMjHsBWN7sj0dzTBjBgNVHSMEXDBa
gBQgAqFZHAeUSqolJ8lJYLsUD4MSCKE/pD0wOzERMA8GA1UECgwIVGVzdCBPcmcx
JjAkBgNVBAMMHVRlc3QgT3JnIFByb3Zpc2lvbmluZyBDQSBSb290ggEBMA8GA1Ud
EwQIMAYBAf8CAQAwDQYJKoZIhvcNAQELBQADggEBALfdCTua9op+VsHV6lh3nf2A
+DZPXhlNnThyEqTOy4OUovC8BppCLUfeHRHZCzeTePbf6yGp8x0FldpT54zgcu/8
CdvEJ3sTE0AIl4v4QZCs7kim2RalIMl4zKjyLp7SiJy4VvW5c1Ye5K/LHB330I+C
hcdyvkb87Y9FNFqtCIeeaw1hb+K9gGw7q98AX4XOBs4cufIOV1isNoxk72Unn/Zl
oSkPscXy1dmbNUv6R86jT2UIAIS3V1hU8E1LP875qt5B9hN5fJ/zCUcjRGGJSmfK
AYJgFU7rPdCO3p8kmsxW/qx45fEd/4ryw9jn5EoSUaGhHScNlMZ+Cixt0koGJBg=
-----END CERTIFICATE-----
