Certificate:
    Data:
        Version: 3 (0x2)
        Serial Number: 1 (0x1)
    Signature Algorithm: sha256WithRSAEncryption
        Issuer: O=Test Org, CN=Test Org Provisioning CA Release
        Validity
            Not Before: Jan  1 00:00:00 1970 GMT
            Not After : Dec 31 23:59:59 9999 GMT
        Subject: O=Test Org, CN=Test Org Release-1
        Subject Public Key Info:
            Public Key Algorithm: rsaEncryption
                Public-Key: (2048 bit)
                Modulus:
                    00:a3:78:93:7c:8d:fe:a6:6f:73:b3:b5:06:3f:f9:
                    4c:c8:14:fa:b3:b2:cf:87:75:a1:c8:0d:0e:61:20:
                    c6:ed:f8:86:c2:cb:a3:d1:5f:4a:3b:8b:9e:cf:95:
                    0c:6a:b4:a2:bd:7d:1e:43:cb:e5:e7:4d:1a:26:07:
                    3b:b4:ee:e4:2b:a0:ab:fd:2b:e3:eb:dc:98:e2:8c:
                    eb:20:52:17:80:fd:7e:49:42:13:5f:d3:84:7a:30:
                    b6:7c:19:dd:3b:20:1f:03:0a:ea:25:44:e4:fc:74:
                    04:16:3d:0a:f7:f9:22:f3:c0:a6:63:f6:41:bb:fc:
                    ef:04:8f:13:c5:f7:4c:24:6b:40:55:9c:b2:7d:de:
                    43:31:f2:33:bb:75:b3:99:93:e2:e5:a1:56:07:69:
                    8c:c8:ca:de:37:9c:a1:e0:2e:1f:9d:4e:07:dc:4e:
                    66:15:60:56:76:56:c3:63:9e:b3:42:11:52:08:f1:
                    06:3a:3f:a3:15:57:ca:2c:e8:a8:71:4e:9f:f7:13:
                    a3:3b:e8:02:af:f9:bf:94:83:c6:6a:c6:73:d8:e7:
                    bc:0e:78:d9:4d:ca:c0:0f:f0:24:d7:ca:e8:0e:91:
                    00:c3:26:bd:d3:c9:63:07:6e:0d:18:4a:5f:17:5c:
                    70:1c:b2:83:43:17:9a:dc:be:75:ca:d0:b0:77:9a:
                    5c:b5
                Exponent: 65537 (0x10001)
        X509v3 extensions:
            X509v3 Subject Key Identifier: 
                7E:B4:B1:F6:62:73:22:BF:D0:8B:F8:7A:6F:48:7D:5E:1D:3D:16:69
            X509v3 Authority Key Identifier: 
                keyid:F8:5D:44:F5:FC:F7:0D:2B:A2:CA:C3:F0:78:69:80:02:C8:5A:BF:3E
                DirName:/O=Test Org/CN=Test Org Provisioning CA Root
                serial:02

            X509v3 Basic Constraints: 
                CA:FALSE
    Signature Algorithm: sha256WithRSAEncryption
         59:99:e9:7f:0f:a8:7f:2d:94:95:55:52:31:f2:c2:86:80:40:
         ba:b1:24:dd:bd:81:f6:75:04:ce:ce:d3:64:a2:5a:59:63:cb:
         e8:b6:7f:38:f5:c4:7b:35:f4:58:5e:6b:5f:6e:dc:88:dd:67:
         97:c9:7c:09:77:2f:3d:ca:64:84:da:c7:36:dd:03:7b:e9:b7:
         79:10:cc:c6:f3:3d:30:e1:68:28:cc:01:8e:cb:71:01:b5:9d:
         98:51:be:7e:8b:89:37:bb:ce:52:58:eb:ec:86:3a:fd:14:ec:
         c3:7b:15:d2:d1:57:62:2a:92:8b:ca:06:d2:72:ee:b0:cc:58:
         49:14:c8:4f:cf:fb:85:4a:40:d2:e5:d7:a4:ff:97:1f:2b:40:
         45:ce:71:74:63:79:d5:c3:48:c1:a2:1e:23:93:36:4e:78:6b:
         48:e7:81:f1:ea:03:38:ff:d4:48:5c:95:3b:a4:25:c2:80:40:
         ea:90:09:72:b2:2c:6c:2b:c9:f2:11:89:93:24:6c:0f:23:4f:
         e2:ed:34:01:67:51:09:aa:fd:98:3a:bf:db:70:27:24:9e:dc:
         8a:6d:34:50:a9:bb:ee:27:8a:90:91:2d:fd:b4:a4:53:01:c8:
         ef:3f:04:0f:7e:a0:7e:cb:a7:12:11:6a:6c:02:d5:6b:79:ee:
         a9:a7:9a:3f
-----BEGIN CERTIFICATE-----
MIIDgDCCAmigAwIBAgIBATANBgkqhkiG9w0BAQsFADA+MREwDwYDVQQKDAhUZXN0
IE9yZzEpMCcGA1UEAwwgVGVzdCBPcmcgUHJvdmlzaW9uaW5nIENBIFJlbGVhc2Uw
IhgPMTk3MDAxMDEwMDAwMDBaGA85OTk5MTIzMTIzNTk1OVowMDERMA8GA1UECgwI
VGVzdCBPcmcxGzAZBgNVBAMMElRlc3QgT3JnIFJlbGVhc2UtMTCCASIwDQYJKoZI
hvcNAQEBBQADggEPADCCAQoCggEBAKN4k3yN/qZvc7O1Bj/5TMgU+rOyz4d1ocgN
DmEgxu34hsLLo9FfSjuLns+VDGq0or19HkPL5edNGiYHO7Tu5Cugq/0r4+vcmOKM
6yBSF4D9fklCE1/ThHowtnwZ3TsgHwMK6iVE5Px0BBY9Cvf5IvPApmP2Qbv87wSP
E8X3TCRrQFWcsn3eQzHyM7t1s5mT4uWhVgdpjMjK3jecoeAuH51OB9xOZhVgVnZW
w2Oes0IRUgjxBjo/oxVXyizoqHFOn/cTozvoAq/5v5SDxmrGc9jnvA542U3KwA/w
JNfK6A6RAMMmvdPJYwduDRhKXxdccByyg0MXmty+dcrQsHeaXLUCAwEAAaOBkjCB
jzAdBgNVHQ4EFgQUfrSx9mJzIr/Qi/h6b0h9Xh09FmkwYwYDVR0jBFwwWoAU+F1E
9fz3DSuiysPweGmAAshavz6hP6Q9MDsxETAPBgNVBAoMCFRlc3QgT3JnMSYwJAYD
VQQDDB1UZXN0IE9yZyBQcm92aXNpb25pbmcgQ0EgUm9vdIIBAjAJBgNVHRMEAjAA
MA0GCSqGSIb3DQEBCwUAA4IBAQBZmel/D6h/LZSVVVIx8sKGgEC6sSTdvYH2dQTO
ztNkolpZY8votn849cR7NfRYXmtfbtyI3WeXyXwJdy89ymSE2sc23QN76bd5EMzG
8z0w4WgozAGOy3EBtZ2YUb5+i4k3u85SWOvshjr9FOzDexXS0VdiKpKLygbScu6w
zFhJFMhPz/uFSkDS5dek/5cfK0BFznF0Y3nVw0jBoh4jkzZOeGtI54Hx6gM4/9RI
XJU7pCXCgEDqkAlysixsK8nyEYmTJGwPI0/i7TQBZ1EJqv2YOr/bcCckntyKbTRQ
qbvuJ4qQkS39tKRTAcjvPwQPfqB+y6cSEWpsAtVree6pp5o/
-----END CERTIFICATE-----
