Certificate:
    Data:
        Version: 3 (0x2)
        Serial Number: 2 (0x2)
    Signature Algorithm: sha256WithRSAEncryption
        Issuer: O=Test Org, CN=Test Org Provisioning CA Release
        Validity
            Not Before: Jan  1 00:00:00 1970 GMT
            Not After : Dec 31 23:59:59 9999 GMT
        Subject: O=Test Org, CN=Test Org Release-1
        Subject Public Key Info:
            Public Key Algorithm: rsaEncryption
                Public-Key: (2048 bit)
                Modulus:
                    00:f2:00:8d:39:d7:96:a7:d8:c3:6e:8a:a7:5d:99:
                    7d:c3:3d:8a:b7:c5:d2:ea:b2:eb:8d:e7:c1:7e:53:
                    34:6d:12:67:de:b1:7d:a5:89:6d:bd:c2:be:ec:a1:
                    d6:3e:32:4f:9c:ba:ad:14:0f:6d:18:bc:dd:9e:41:
                    93:ce:ab:ea:ff:f7:33:c9:ef:2f:dd:78:a9:0b:5a:
                    48:be:a9:13:4e:ed:7d:5a:49:08:ba:97:68:8d:4d:
                    a2:0e:64:1d:be:99:0a:e1:50:60:40:2e:48:37:39:
                    62:51:12:90:6d:33:bc:fe:74:07:82:b0:ba:c1:c6:
                    c9:ea:27:23:41:06:cd:fb:e7:43:25:cd:67:43:5f:
                    e5:42:be:f3:e8:46:f4:d7:7a:70:a0:b6:94:e4:c3:
                    ba:01:9f:26:51:ea:55:78:56:04:af:1b:76:ec:db:
                    d3:d4:f2:30:6b:fc:34:19:e3:b2:84:78:95:53:e6:
                    94:ff:49:6a:da:38:f5:d2:51:80:e8:02:ae:a9:76:
                    c6:27:82:c9:db:ae:c6:81:de:41:6d:2a:7d:dd:26:
                    62:cf:58:bb:9e:76:01:08:4e:64:f7:b7:8f:d3:71:
                    80:aa:69:db:66:99:08:60:bc:42:dd:0a:ec:0f:80:
                    9f:9f:79:cd:9e:fb:89:05:4b:e9:b4:66:9d:a4:19:
                    bf:99
                Exponent: 65537 (0x10001)
        X509v3 extensions:
            X509v3 Subject Key Identifier: 
                7F:6F:35:B8:6D:8D:94:4F:80:7B:0C:45:B4:7A:CB:0C:05:5D:6F:D5
            X509v3 Authority Key Identifier: 
                keyid:BF:41:C9:7B:30:19:92:43:B5:8B:AA:F2:3D:DC:E1:B4:CD:23:67:23
                DirName:/O=Test Org/CN=Test Org Provisioning CA Release
                serial:01

            X509v3 Basic Constraints: 
                CA:FALSE
    Signature Algorithm: sha256WithRSAEncryption
         6a:4c:d2:27:69:22:db:60:1f:5e:26:f2:a3:ae:db:6b:39:bf:
         85:12:07:89:36:86:0b:42:be:2a:7a:09:0b:78:95:2f:74:f7:
         90:5c:ec:57:c3:40:a7:4e:f1:77:9f:4c:ce:c7:bf:31:70:d7:
         51:d4:2f:fd:39:38:b7:ca:77:1e:db:d5:72:5a:96:35:45:21:
         db:36:fb:f0:e9:80:53:6a:2f:b5:4d:1b:a9:75:1e:70:ff:13:
         2f:b8:38:8b:b5:5d:eb:d9:5b:b6:ec:c5:e5:d6:10:00:c0:1a:
         4d:8e:93:f5:b0:52:fe:50:20:37:c2:2d:48:ff:bf:6d:9c:09:
         4d:8f:c1:ae:3a:36:14:ab:3e:c5:80:74:7e:87:91:b9:38:f8:
         27:82:95:9a:2b:6a:71:76:ff:7f:a7:c8:56:99:68:29:e3:61:
         fa:e9:fc:5b:10:b9:26:e6:46:4b:4d:e1:14:3c:26:a5:12:9d:
         25:84:23:d2:a3:77:f3:3d:25:d9:81:1f:05:e9:2c:2d:d5:99:
         b2:45:85:da:34:32:b3:1d:42:02:a2:e2:71:55:94:5c:11:7b:
         ae:3f:31:b0:43:ae:c0:22:4c:71:d1:6b:e4:ba:07:ec:2a:c2:
         ca:1a:b6:bb:cf:0c:e4:eb:4e:15:44:65:ac:79:07:0a:75:39:
         81:ca:bb:95
-----BEGIN CERTIFICATE-----
MIIDgzCCAmugAwIBAgIBAjANBgkqhkiG9w0BAQsFADA+MREwDwYDVQQKDAhUZXN0
IE9yZzEpMCcGA1UEAwwgVGVzdCBPcmcgUHJvdmlzaW9uaW5nIENBIFJlbGVhc2Uw
IhgPMTk3MDAxMDEwMDAwMDBaGA85OTk5MTIzMTIzNTk1OVowMDERMA8GA1UECgwI
VGVzdCBPcmcxGzAZBgNVBAMMElRlc3QgT3JnIFJlbGVhc2UtMTCCASIwDQYJKoZI
hvcNAQEBBQADggEPADCCAQoCggEBAPIAjTnXlqfYw26Kp12ZfcM9irfF0uqy643n
wX5TNG0SZ96xfaWJbb3Cvuyh1j4yT5y6rRQPbRi83Z5Bk86r6v/3M8nvL914qQta
SL6pE07tfVpJCLqXaI1Nog5kHb6ZCuFQYEAuSDc5YlESkG0zvP50B4KwusHGyeon
I0EGzfvnQyXNZ0Nf5UK+8+hG9Nd6cKC2lOTDugGfJlHqVXhWBK8bduzb09TyMGv8
NBnjsoR4lVPmlP9Jato49dJRgOgCrql2xieCyduuxoHeQW0qfd0mYs9Yu552AQhO
ZPe3j9NxgKpp22aZCGC8Qt0K7A+An595zZ77iQVL6bRmnaQZv5kCAwEAAaOBlTCB
kjAdBgNVHQ4EFgQUf281uG2NlE+AewxFtHrLDAVdb9UwZgYDVR0jBF8wXYAUv0HJ
ezAZkkO1i6ryPdzhtM0jZyOhQqRAMD4xETAPBgNVBAoMCFRlc3QgT3JnMSkwJwYD
VQQDDCBUZXN0IE9yZyBQcm92aXNpb25pbmcgQ0EgUmVsZWFzZYIBATAJBgNVHRME
AjAAMA0GCSqGSIb3DQEBCwUAA4IBAQBqTNInaSLbYB9eJvKjrttrOb+FEgeJNoYL
Qr4qegkLeJUvdPeQXOxXw0CnTvF3n0zOx78xcNdR1C/9OTi3ynce29VyWpY1RSHb
Nvvw6YBTai+1TRupdR5w/xMvuDiLtV3r2Vu27MXl1hAAwBpNjpP1sFL+UCA3wi1I
/79tnAlNj8GuOjYUqz7FgHR+h5G5OPgngpWaK2pxdv9/p8hWmWgp42H66fxbELkm
5kZLTeEUPCalEp0lhCPSo3fzPSXZgR8F6Swt1ZmyRYXaNDKzHUICouJxVZRcEXuu
PzGwQ67AIkxx0WvkugfsKsLKGra7zwzk604VRGWseQcKdTmByruV
-----END CERTIFICATE-----
