Certificate:
    Data:
        Version: 3 (0x2)
        Serial Number: 2 (0x2)
    Signature Algorithm: sha256WithRSAEncryption
        Issuer: O=Test Org, CN=Test Org Provisioning CA Release
        Validity
            Not Before: Jan  1 00:00:00 2018 GMT
            Not After : Jul  1 00:00:00 2019 GMT
        Subject: O=Test Org, CN=Test Org Release-2018
        Subject Public Key Info:
            Public Key Algorithm: rsaEncryption
                Public-Key: (2048 bit)
                Modulus:
                    00:d9:3d:36:1d:02:ae:69:9c:fc:1b:01:44:8f:d9:
                    e6:17:f5:ac:05:17:95:2c:af:3a:59:6d:91:a5:68:
                    9f:88:19:c8:68:90:88:40:e2:67:28:ec:e2:cd:2a:
                    9f:44:85:0c:66:53:8f:6a:ac:72:20:90:06:4a:48:
                    f1:a4:43:f7:4d:82:3c:68:10:41:0e:c9:7c:a9:8e:
                    68:c8:c6:e7:96:50:87:29:95:df:3f:09:e0:4d:63:
                    1e:30:80:85:34:38:ca:46:5f:99:c7:8a:ab:85:d0:
                    f6:a0:23:02:1d:ba:91:2a:87:20:da:c1:85:9c:52:
                    bb:48:00:a9:31:5b:1a:78:81:43:63:cf:4d:42:41:
                    77:c2:29:27:c9:f1:15:19:74:6c:a7:1d:88:c1:df:
                    13:85:97:18:fb:39:fd:1f:d0:a7:1d:10:07:1f:64:
                    4d:30:a6:a1:bf:8e:31:bb:c9:fe:41:0a:05:93:92:
                    7d:3a:c3:ea:32:75:a0:f1:00:56:01:13:3c:d7:29:
                    70:09:4f:b5:df:43:5a:f7:3d:c5:16:30:26:5c:c8:
                    9a:c8:2c:a7:4f:fd:68:2b:a6:66:ac:7a:de:b0:4f:
                    c4:d8:a6:4f:c7:e0:6c:4c:6d:12:a9:ae:5e:be:b5:
                    d7:a4:51:0d:98:4c:62:99:f3:9b:01:22:66:65:e5:
                    4a:e7
                Exponent: 65537 (0x10001)
        X509v3 extensions:
            X509v3 Subject Key Identifier: 
                B4:81:F8:07:71:3E:F7:EB:25:65:D6:9A:01:94:FC:8D:38:ED:8B:B3
            X509v3 Authority Key Identifier: 
                keyid:F8:5D:44:F5:FC:F7:0D:2B:A2:CA:C3:F0:78:69:80:02:C8:5A:BF:3E
                DirName:/O=Test Org/CN=Test Org Provisioning CA Root
                serial:02

            X509v3 Basic Constraints: 
                CA:FALSE
    Signature Algorithm: sha256WithRSAEncryption
         4c:81:ba:d9:87:77:1d:e4:22:07:41:e2:76:ba:52:b1:9c:51:
         11:cd:94:d7:17:9e:89:95:f1:b6:6f:d6:ad:ac:d7:31:d9:61:
         ec:b8:34:e7:8e:1b:fd:57:e0:4f:5a:61:c0:82:6a:50:ff:a5:
         12:04:6c:3f:c8:e6:c9:75:c3:06:7b:c8:96:da:3a:ee:08:58:
         3a:be:0b:cc:85:c5:3d:39:db:54:aa:14:43:7b:c0:4b:46:b4:
         16:a9:4f:45:f2:a7:2d:20:bd:ca:cd:f1:a1:bd:01:51:5f:05:
         56:4a:b5:78:17:2a:a8:b4:d0:c1:4e:30:5d:56:22:9d:b5:e8:
         a2:a2:0f:6d:97:be:90:1a:05:93:dd:19:85:63:10:85:fe:08:
         80:d1:19:da:71:e5:e6:78:bd:97:0b:d8:60:06:e6:68:dd:bd:
         48:fd:c6:a9:aa:96:c8:58:c2:9b:10:e4:54:f4:12:c4:f7:9d:
         66:4d:b3:12:e9:e7:f5:8e:f8:b8:0c:83:15:3c:23:6f:44:97:
         2f:09:29:73:3e:fe:67:42:6e:92:13:47:1b:42:a3:6f:c2:61:
         18:13:9a:70:75:1b:27:38:ad:6a:74:91:7b:3a:37:0b:42:b4:
         b8:90:1f:d7:a1:31:37:d2:1c:05:d3:a4:5f:8a:92:3e:c6:c0:
         72:b7:d6:9b
-----BEGIN CERTIFICATE-----
MIIDgzCCAmugAwIBAgIBAjANBgkqhkiG9w0BAQsFADA+MREwDwYDVQQKDAhUZXN0
IE9yZzEpMCcGA1UEAwwgVGVzdCBPcmcgUHJvdmlzaW9uaW5nIENBIFJlbGVhc2Uw
IhgPMjAxODAxMDEwMDAwMDBaGA8yMDE5MDcwMTAwMDAwMFowMzERMA8GA1UECgwI
VGVzdCBPcmcxHjAcBgNVBAMMFVRlc3QgT3JnIFJlbGVhc2UtMjAxODCCASIwDQYJ
KoZIhvcNAQEBBQADggEPADCCAQoCggEBANk9Nh0Crmmc/BsBRI/Z5hf1rAUXlSyv
OlltkaVon4gZyGiQiEDiZyjs4s0qn0SFDGZTj2qsciCQBkpI8aRD902CPGgQQQ7J
fKmOaMjG55ZQhymV3z8J4E1jHjCAhTQ4ykZfmceKq4XQ9qAjAh26kSqHINrBhZxS
u0gAqTFbGniBQ2PPTUJBd8IpJ8nxFRl0bKcdiMHfE4WXGPs5/R/Qpx0QBx9kTTCm
ob+OMbvJ/kEKBZOSfTrD6jJ1oPEAVgETPNcpcAlPtd9DWvc9xRYwJlzImsgsp0/9
aCumZqx63rBPxNimT8fgbExtEqmuXr6116RRDZhMYpnzmwEiZmXlSucCAwEAAaOB
kjCBjzAdBgNVHQ4EFgQUtIH4B3E+9+slZdaaAZT8jTjti7MwYwYDVR0jBFwwWoAU
+F1E9fz3DSuiysPweGmAAshavz6hP6Q9MDsxETAPBgNVBAoMCFRlc3QgT3JnMSYw
JAYDVQQDDB1UZXN0IE9yZyBQcm92aXNpb25pbmcgQ0EgUm9vdIIBAjAJBgNVHRME
AjAAMA0GCSqGSIb3DQEBCwUAA4IBAQBMgbrZh3cd5CIHQeJ2ulKxnFERzZTXF56J
lfG2b9atrNcx2WHsuDTnjhv9V+BPWmHAgmpQ/6USBGw/yObJdcMGe8iW2jruCFg6
vgvMhcU9OdtUqhRDe8BLRrQWqU9F8qctIL3KzfGhvQFRXwVWSrV4FyqotNDBTjBd
ViKdteiiog9tl76QGgWT3RmFYxCF/giA0RnaceXmeL2XC9hgBuZo3b1I/capqpbI
WMKbEORU9BLE951mTbMS6ef1jvi4DIMVPCNvRJcvCSlzPv5nQm6SE0cbQqNvwmEY
E5pwdRsnOK1qdJF7OjcLQrS4kB/XoTE30hwF06RfipI+xsByt9ab
-----END CERTIFICATE-----
